MPASM 5.86                HONGOS_LUMIN73.ASM   9-16-2020  23:21:08         PAGE  1


LOC  OBJECT CODE     LINE SOURCE TEXT
  VALUE

                      00001  ;PROCESSOR P16F73
                      00002  #INCLUDE <P16F73.INC>
                      00001         LIST
                      00002 
                      00003 ;==========================================================================
                      00004 ; Build date : Oct 24 2019
                      00005 ;  MPASM PIC16F73 processor include
                      00006 ; 
                      00007 ;  (c) Copyright 1999-2019 Microchip Technology, All rights reserved
                      00008 ;==========================================================================
                      00009 
                      00456         LIST
                      00003  LIST P=16F73
                      00004 ; CONFIG
                      00005 ; __config 0xFFF2
2007   3FF2           00006  __CONFIG _FOSC_HS & _WDTE_OFF & _PWRTE_ON & _CP_OFF & _BOREN_ON
                      00007  
                      00008  #DEFINE RX_BYTE 0x01
                      00009  
                      00010  CBLOCK 0x20
  00000020            00011     CONTADOR
  00000021            00012     UART
  00000022            00013     GUARDA_W
  00000023            00014     GUARDA_STATUS
  00000024            00015     TEMP
  00000025            00016     CONTADOR_TIEMPO
                      00017  ENDC
                      00018  
                      00019     ORG 0
0000   2???           00020     GOTO SETUP
                      00021     ORG 4
0004   2???           00022     GOTO INTERRUPCION
0005                  00023 SETUP:
0005   1683           00024     BSF STATUS,RP0          ;BANCO 1.
0006   1303           00025     BCF STATUS, RP1         
0007   3020           00026     MOVLW B'00100000'       ;HABILITA LA INTERRUPCION PARA RX (RECEPCION SERIAL) EN EUSART.
Message[302]: Register in operand not in bank 0.  Ensure that bank bits are correct.
0008   008C           00027     MOVWF PIE1              ;HABILITACION DE INTERRUPCION PARA RX.
Message[302]: Register in operand not in bank 0.  Ensure that bank bits are correct.
0009   018D           00028     CLRF PIE2
000A   3080           00029     MOVLW B'10000000'       ;PUERTO RX COMO ENTRADA Y CCP1,CCP2/PWM 1KHz.
Message[302]: Register in operand not in bank 0.  Ensure that bank bits are correct.
000B   0087           00030     MOVWF TRISC
000C   3024           00031     MOVLW B'00100100'
Message[302]: Register in operand not in bank 0.  Ensure that bank bits are correct.
000D   0098           00032     MOVWF TXSTA
000E   30CF           00033     MOVLW D'207'            ;RESULTADO DEL CALCULO PARA 2400 BAUDIOS.
Message[302]: Register in operand not in bank 0.  Ensure that bank bits are correct.
000F   0099           00034     MOVWF SPBRG
Message[302]: Register in operand not in bank 0.  Ensure that bank bits are correct.
0010   0186           00035     CLRF TRISB              ;SALIDA PARA LOS LEDS.
0011   30F9           00036     MOVLW D'249'
Message[302]: Register in operand not in bank 0.  Ensure that bank bits are correct.
MPASM 5.86                HONGOS_LUMIN73.ASM   9-16-2020  23:21:08         PAGE  2


LOC  OBJECT CODE     LINE SOURCE TEXT
  VALUE

0012   0092           00037     MOVWF PR2
0013   1283           00038     BCF STATUS,RP0          ;BANCO 0.
0014   1303           00039     BCF STATUS,RP1          ;CONFIGURACION DEL PUERTO RX.
0015   0190           00040     CLRF T1CON
0016   018C           00041     CLRF PIR1
0017   018D           00042     CLRF PIR2
0018   3090           00043     MOVLW B'10010000'
0019   0098           00044     MOVWF RCSTA
001A   30C0           00045     MOVLW B'11000000'       ;CONFIGURACION PARA INTERRUPCION RX.
001B   008B           00046     MOVWF INTCON            ;INTERRUPCION EUSART, PEIE Y GIE.
001C   300C           00047     MOVLW B'00001100'
001D   0097           00048     MOVWF CCP1CON
001E   009D           00049     MOVWF CCP2CON
001F   30CC           00050     MOVLW D'204'
0020   0095           00051     MOVWF CCPR1L
0021   3000           00052     MOVLW D'0'
0022   009B           00053     MOVWF CCPR2L
0023   3005           00054     MOVLW B'00000101'
0024   0092           00055     MOVWF T2CON
0025   0186           00056     CLRF PORTB
0026   081A           00057     MOVF RCREG,W            ;Flush receive buffer
0027   081A           00058     MOVF RCREG,W
0028   081A           00059     MOVF RCREG,W
0029   3000           00060     MOVLW 0x00
002A   00A0           00061     MOVWF CONTADOR
002B   2???           00062     GOTO PROGRAMA
                      00063     
                      00064         ;ESPERA AQUI HASTA QUE EL USUARIO HAGA UNA DESICION DEL MENU.
                      00065         ;------------------------------------------------------------
002C                  00066 ESPERA_CMD:
002C   10A1           00067     BCF UART,RX_BYTE
002D                  00068 ESPERA_CMD_NUEVO:
002D   18A1           00069     BTFSC UART,RX_BYTE
002E   2???           00070     GOTO PROGRAMA
002F   2???           00071     GOTO ESPERA_CMD_NUEVO
                      00072         ;MENU DE DESICIONES.
                      00073         ;------------------------------------------------------------
                      00074     
0030                  00075 PROGRAMA:
0030   1283 1303      00076     BANKSEL TEMP
0032   0824           00077     MOVFW TEMP
0033   3A55           00078     XORLW 0x55
0034   1903           00079     BTFSC STATUS,Z
0035   2???           00080     GOTO CAMBIO_COLOR
                      00081     
0036   0824           00082     MOVFW TEMP
0037   3AAA           00083     XORLW 0xAA
0038   1903           00084     BTFSC STATUS,Z
0039   2???           00085     GOTO CAMBIO_DUTY
                      00086     
003A   0824           00087     MOVFW TEMP
003B   3A33           00088     XORLW 0x33
003C   1903           00089     BTFSC STATUS,Z
MPASM 5.86                HONGOS_LUMIN73.ASM   9-16-2020  23:21:08         PAGE  3


LOC  OBJECT CODE     LINE SOURCE TEXT
  VALUE

003D   2???           00090     GOTO CAMBIO_AUTO
003E   2???           00091     GOTO ESPERA_CMD
                      00092 
003F                  00093 CAMBIO_COLOR:
003F   30FF           00094     MOVLW D'255'
0040   009B           00095     MOVWF CCPR2L
0041   3001           00096     MOVLW D'1'
0042   07A0           00097     ADDWF CONTADOR,1
0043   0820           00098     MOVFW CONTADOR
0044   3907           00099     ANDLW D'7'
0045   0086           00100     MOVWF PORTB
0046   2???           00101     GOTO ESPERA_CMD
                      00102     
0047                  00103 CAMBIO_DUTY:
0047   3033           00104     MOVLW D'51'
0048   0795           00105     ADDWF CCPR1L,1
0049   2???           00106     GOTO ESPERA_CMD
                      00107     
004A                  00108 CAMBIO_AUTO:
004A   3000           00109     MOVLW 0x00
004B   009B           00110     MOVWF CCPR2L
004C   3001           00111     MOVLW D'1'
004D   07A0           00112     ADDWF CONTADOR,1
004E   0820           00113     MOVFW CONTADOR
004F   3907           00114     ANDLW D'7'
0050   0086           00115     MOVWF PORTB
                      00116     
0051   30FF           00117     MOVLW 0xFF
0052   00A5           00118     MOVWF CONTADOR_TIEMPO
0053                  00119 LED_BRILLO:
0053   2???           00120     CALL CAMBIO_RETARDO_5MS
0054   0BA5           00121     DECFSZ CONTADOR_TIEMPO,F
0055   2???           00122     GOTO LED_BRILLO
0056   30FF           00123     MOVLW 0xFF
0057   00A5           00124     MOVWF CONTADOR_TIEMPO
0058                  00125 LED_APAGADO:
0058   2???           00126     CALL CAMBIO2_RETARDO_15MS
0059   0BA5           00127     DECFSZ CONTADOR_TIEMPO,F
005A   2???           00128     GOTO LED_APAGADO
005B   2???           00129     GOTO CAMBIO_AUTO
                      00130   
005C                  00131 CAMBIO_RETARDO_5MS:   
005C   1010           00132     BCF T1CON,TMR1ON
005D   30EC           00133     MOVLW 0xEC
005E   008F           00134     MOVWF TMR1H
005F   3078           00135     MOVLW 0x78
0060   008E           00136     MOVWF TMR1L
0061   1410           00137     BSF T1CON,TMR1ON
Warning[207]: Found label after column 1. (RETARDO_15MS_4_0)
0062                  00138  RETARDO_15MS_4_0:
0062   1C0C           00139     BTFSS PIR1,TMR1IF
0063   2???           00140     GOTO RETARDO_15MS_4_0
0064   1010           00141     BCF T1CON,TMR1ON
MPASM 5.86                HONGOS_LUMIN73.ASM   9-16-2020  23:21:08         PAGE  4


LOC  OBJECT CODE     LINE SOURCE TEXT
  VALUE

0065   100C           00142     BCF PIR1,TMR1IF
0066   0A9B           00143     INCF CCPR2L,1
0067   0008           00144     RETURN
                      00145     
0068                  00146 CAMBIO2_RETARDO_15MS:   
0068   1010           00147     BCF T1CON,TMR1ON
0069   3065           00148     MOVLW 0x65
006A   008F           00149     MOVWF TMR1H
006B   3068           00150     MOVLW 0x68
006C   008E           00151     MOVWF TMR1L
006D   1410           00152     BSF T1CON,TMR1ON
Warning[207]: Found label after column 1. (RETARDO2_15MS_4_0)
006E                  00153  RETARDO2_15MS_4_0:
006E   1C0C           00154     BTFSS PIR1,TMR1IF
006F   2???           00155     GOTO RETARDO2_15MS_4_0
0070   1010           00156     BCF T1CON,TMR1ON
0071   100C           00157     BCF PIR1,TMR1IF
0072   039B           00158     DECF CCPR2L,1
0073   0008           00159     RETURN
                      00160     
0074                  00161 INTERRUPCION:
0074   00A2           00162     MOVWF GUARDA_W
0075   0E03           00163     SWAPF STATUS,W
0076   1283           00164     BCF STATUS,RP0
0077   1303           00165     BCF STATUS,RP1
0078   00A3           00166     MOVWF GUARDA_STATUS
0079                  00167 GUARDADO:
0079   1E8C           00168     BTFSS PIR1,RCIF         ;CHECAR SI LA INTERRUPCION ES DEL USART.
007A   2???           00169     GOTO EXIT 
007B   18A1           00170     BTFSC UART,RX_BYTE      ;SI RX_BIT ESTA ALTO, ENTONCES RXREG NO SE HA PROCESADO AUN.
007C   2???           00171     GOTO EXIT
007D   081A           00172     MOVF RCREG,W            ;Read input byte into W
007E   00A4           00173     MOVWF TEMP              ;Store received byte to shared RAM
007F   14A1           00174     BSF UART,RX_BYTE
0080   081A           00175     MOVFW RCREG             ;PUEDE HABER UN SEGUNDO BYTE.
0081   1218           00176     BCF RCSTA,CREN
0082   1618           00177     BSF RCSTA,CREN
0083                  00178 EXIT:
0083   081A           00179     MOVFW RCREG
0084   081A           00180     MOVFW RCREG
0085   0E23           00181     SWAPF GUARDA_STATUS,W
0086   0083           00182     MOVWF STATUS
0087   0EA2           00183     SWAPF GUARDA_W,F
0088   0E22           00184     SWAPF GUARDA_W,W
0089   0009           00185     RETFIE
3FF2                  00186     END
MPASM 5.86                HONGOS_LUMIN73.ASM   9-16-2020  23:21:08         PAGE  5


SYMBOL TABLE
  LABEL                             VALUE 

ADCON0                            0000001F
ADCON1                            0000009F
ADCS0                             00000006
ADCS1                             00000007
ADIE                              00000006
ADIF                              00000006
ADON                              00000000
ADRES                             0000001E
BF                                00000000
BRGH                              00000002
C                                 00000000
CAMBIO2_RETARDO_15MS              00000068
CAMBIO_AUTO                       0000004A
CAMBIO_COLOR                      0000003F
CAMBIO_DUTY                       00000047
CAMBIO_RETARDO_5MS                0000005C
CCP1CON                           00000017
CCP1IE                            00000002
CCP1IF                            00000002
CCP1M0                            00000000
CCP1M1                            00000001
CCP1M2                            00000002
CCP1M3                            00000003
CCP1X                             00000005
CCP1Y                             00000004
CCP2CON                           0000001D
CCP2IE                            00000000
CCP2IF                            00000000
CCP2M0                            00000000
CCP2M1                            00000001
CCP2M2                            00000002
CCP2M3                            00000003
CCP2X                             00000005
CCP2Y                             00000004
CCPR1                             00000015
CCPR1H                            00000016
CCPR1L                            00000015
CCPR2                             0000001B
CCPR2H                            0000001C
CCPR2L                            0000001B
CHS0                              00000003
CHS1                              00000004
CHS2                              00000005
CKE                               00000006
CKP                               00000004
CONTADOR                          00000020
CONTADOR_TIEMPO                   00000025
CREN                              00000004
CSRC                              00000007
D                                 00000005
DATA_ADDRESS                      00000005
DC                                00000001
D_A                               00000005
MPASM 5.86                HONGOS_LUMIN73.ASM   9-16-2020  23:21:08         PAGE  6


SYMBOL TABLE
  LABEL                             VALUE 

D_NOT_A                           00000005
ESPERA_CMD                        0000002C
ESPERA_CMD_NUEVO                  0000002D
EXIT                              00000083
F                                 00000001
FERR                              00000002
FSR                               00000004
GIE                               00000007
GO                                00000002
GO_DONE                           00000002
GO_NOT_DONE                       00000002
GUARDADO                          00000079
GUARDA_STATUS                     00000023
GUARDA_W                          00000022
I2C_DATA                          00000005
I2C_READ                          00000002
I2C_START                         00000003
I2C_STOP                          00000004
INDF                              00000000
INTCON                            0000000B
INTE                              00000004
INTEDG                            00000006
INTERRUPCION                      00000074
INTF                              00000001
IRP                               00000007
LED_APAGADO                       00000058
LED_BRILLO                        00000053
NOT_A                             00000005
NOT_ADDRESS                       00000005
NOT_BO                            00000000
NOT_BOR                           00000000
NOT_DONE                          00000002
NOT_PD                            00000003
NOT_POR                           00000001
NOT_RBPU                          00000007
NOT_RC8                           00000006
NOT_T1SYNC                        00000002
NOT_TO                            00000004
NOT_TX8                           00000006
NOT_W                             00000002
NOT_WRITE                         00000002
OERR                              00000001
OPTION_REG                        00000081
P                                 00000004
PCFG0                             00000000
PCFG1                             00000001
PCFG2                             00000002
PCL                               00000002
PCLATH                            0000000A
PCON                              0000008E
PEIE                              00000006
PIE1                              0000008C
PIE2                              0000008D
MPASM 5.86                HONGOS_LUMIN73.ASM   9-16-2020  23:21:08         PAGE  7


SYMBOL TABLE
  LABEL                             VALUE 

PIR1                              0000000C
PIR2                              0000000D
PMADR                             0000010D
PMADRH                            0000010F
PMCON1                            0000018C
PMDATA                            0000010C
PMDATH                            0000010E
PORTA                             00000005
PORTB                             00000006
PORTC                             00000007
PR2                               00000092
PROGRAMA                          00000030
PS0                               00000000
PS1                               00000001
PS2                               00000002
PSA                               00000003
R                                 00000002
RA0                               00000000
RA1                               00000001
RA2                               00000002
RA3                               00000003
RA4                               00000004
RA5                               00000005
RB0                               00000000
RB1                               00000001
RB2                               00000002
RB3                               00000003
RB4                               00000004
RB5                               00000005
RB6                               00000006
RB7                               00000007
RBIE                              00000003
RBIF                              00000000
RC0                               00000000
RC1                               00000001
RC2                               00000002
RC3                               00000003
RC4                               00000004
RC5                               00000005
RC6                               00000006
RC7                               00000007
RC8_9                             00000006
RC9                               00000006
RCD8                              00000000
RCIE                              00000005
RCIF                              00000005
RCREG                             0000001A
RCSTA                             00000018
RD                                00000000
READ_WRITE                        00000002
RETARDO2_15MS_4_0                 0000006E
RETARDO_15MS_4_0                  00000062
RP0                               00000005
MPASM 5.86                HONGOS_LUMIN73.ASM   9-16-2020  23:21:08         PAGE  8


SYMBOL TABLE
  LABEL                             VALUE 

RP1                               00000006
RX9                               00000006
RX9D                              00000000
RX_BYTE                           0x01
R_NOT_W                           00000002
R_W                               00000002
S                                 00000003
SETUP                             00000005
SMP                               00000007
SPBRG                             00000099
SPEN                              00000007
SREN                              00000005
SSPADD                            00000093
SSPBUF                            00000013
SSPCON                            00000014
SSPEN                             00000005
SSPIE                             00000003
SSPIF                             00000003
SSPM0                             00000000
SSPM1                             00000001
SSPM2                             00000002
SSPM3                             00000003
SSPOV                             00000006
SSPSTAT                           00000094
STATUS                            00000003
SYNC                              00000004
T0CS                              00000005
T0IE                              00000005
T0IF                              00000002
T0SE                              00000004
T1CKPS0                           00000004
T1CKPS1                           00000005
T1CON                             00000010
T1INSYNC                          00000002
T1OSCEN                           00000003
T2CKPS0                           00000000
T2CKPS1                           00000001
T2CON                             00000012
TEMP                              00000024
TMR0                              00000001
TMR0IE                            00000005
TMR0IF                            00000002
TMR1                              0000000E
TMR1CS                            00000001
TMR1H                             0000000F
TMR1IE                            00000000
TMR1IF                            00000000
TMR1L                             0000000E
TMR1ON                            00000000
TMR2                              00000011
TMR2IE                            00000001
TMR2IF                            00000001
TMR2ON                            00000002
MPASM 5.86                HONGOS_LUMIN73.ASM   9-16-2020  23:21:08         PAGE  9


SYMBOL TABLE
  LABEL                             VALUE 

TOUTPS0                           00000003
TOUTPS1                           00000004
TOUTPS2                           00000005
TOUTPS3                           00000006
TRISA                             00000085
TRISA0                            00000000
TRISA1                            00000001
TRISA2                            00000002
TRISA3                            00000003
TRISA4                            00000004
TRISA5                            00000005
TRISB                             00000086
TRISB0                            00000000
TRISB1                            00000001
TRISB2                            00000002
TRISB3                            00000003
TRISB4                            00000004
TRISB5                            00000005
TRISB6                            00000006
TRISB7                            00000007
TRISC                             00000087
TRISC0                            00000000
TRISC1                            00000001
TRISC2                            00000002
TRISC3                            00000003
TRISC4                            00000004
TRISC5                            00000005
TRISC6                            00000006
TRISC7                            00000007
TRMT                              00000001
TX8_9                             00000006
TX9                               00000006
TX9D                              00000000
TXD8                              00000000
TXEN                              00000005
TXIE                              00000004
TXIF                              00000004
TXREG                             00000019
TXSTA                             00000098
UA                                00000001
UART                              00000021
W                                 00000000
WCOL                              00000007
Z                                 00000002
_BODEN_OFF                        00003FBF
_BODEN_ON                         00003FFF
_BOREN_OFF                        00003FBF
_BOREN_ON                         00003FFF
_CONFIG                           00002007
_CP_ALL                           00003FEF
_CP_OFF                           00003FFF
_CP_ON                            00003FEF
_DEVID1                           00002006
MPASM 5.86                HONGOS_LUMIN73.ASM   9-16-2020  23:21:08         PAGE 10


SYMBOL TABLE
  LABEL                             VALUE 

_FOSC_HS                          00003FFE
_FOSC_LP                          00003FFC
_FOSC_RC                          00003FFF
_FOSC_XT                          00003FFD
_HS_OSC                           00003FFE
_IDLOC0                           00002000
_IDLOC1                           00002001
_IDLOC2                           00002002
_IDLOC3                           00002003
_LP_OSC                           00003FFC
_PWRTE_OFF                        00003FFF
_PWRTE_ON                         00003FF7
_RC_OSC                           00003FFF
_WDTE_OFF                         00003FFB
_WDTE_ON                          00003FFF
_WDT_OFF                          00003FFB
_WDT_ON                           00003FFF
_XT_OSC                           00003FFD
__16F73                           00000001

Errors   :     0
Warnings :     2 reported,     0 suppressed
Messages :     7 reported,     0 suppressed

