MPASM 5.86                HONGOS_LUMIN73.ASM   9-24-2020  19:30:11         PAGE  1


LOC  OBJECT CODE     LINE SOURCE TEXT
  VALUE

                      00001  ;PROCESSOR P16F73
                      00002  #INCLUDE <P16F73.INC>
                      00001         LIST
                      00002 
                      00003 ;==========================================================================
                      00004 ; Build date : Oct 24 2019
                      00005 ;  MPASM PIC16F73 processor include
                      00006 ; 
                      00007 ;  (c) Copyright 1999-2019 Microchip Technology, All rights reserved
                      00008 ;==========================================================================
                      00009 
                      00456         LIST
                      00003  LIST P=16F73
                      00004 ; CONFIG
                      00005 ; __config 0xFFF2
2007   3FF2           00006  __CONFIG _FOSC_HS & _WDTE_OFF & _PWRTE_ON & _CP_OFF & _BOREN_ON
                      00007  
Warning[207]: Found label after column 1. (START_PASSED)
  00000001            00008  START_PASSED EQU 0x1
Warning[207]: Found label after column 1. (END_RECV)
  00000002            00009  END_RECV EQU 0x2
                      00010  
                      00011  CBLOCK 0x20
  00000020            00012     IR_FLAGS
  00000021            00013     CONTADOR
  00000022            00014     CONTADOR_2
  00000023            00015     REC_BYTE1
  00000024            00016     REC_BYTE2
                      00017     ;UART
  00000025            00018     GUARDA_W
  00000026            00019     GUARDA_STATUS
                      00020     ;TEMP
  00000027            00021     CONTADOR_TIEMPO
                      00022  ENDC
                      00023  
                      00024     ORG 0
0000   2???           00025     GOTO SETUP              ;PREPARACION.
                      00026     ORG 4
0004   2???           00027     GOTO INT_HANDLE         ;RECEPCION IR.
                      00028     ;GOTO INTERRUPCION
0005                  00029 SETUP:
0005   1683           00030     BSF STATUS,RP0          ;BANCO 1.
0006   1303           00031     BCF STATUS, RP1         
                      00032     ;MOVLW B'00100000'      ;HABILITA LA INTERRUPCION PARA RX (RECEPCION SERIAL) EN EUSART.
                      00033     ;MOVWF PIE1             ;HABILITACION DE INTERRUPCION PARA RX.
0007   3003           00034     MOVLW B'00000011'       ;PRESCALLER:16.
Message[302]: Register in operand not in bank 0.  Ensure that bank bits are correct.
0008   0081           00035     MOVWF OPTION_REG
Message[302]: Register in operand not in bank 0.  Ensure that bank bits are correct.
0009   018D           00036     CLRF PIE2
                      00037     ;MOVLW B'00000000'      ;PUERTO RX COMO ENTRADA Y CCP1,CCP2/PWM 1KHz.
                      00038     ;MOVWF TRISC
Message[302]: Register in operand not in bank 0.  Ensure that bank bits are correct.
MPASM 5.86                HONGOS_LUMIN73.ASM   9-24-2020  19:30:11         PAGE  2


LOC  OBJECT CODE     LINE SOURCE TEXT
  VALUE

000A   0187           00039     CLRF TRISC
                      00040     ;MOVLW B'00100100'
                      00041     ;MOVWF TXSTA
                      00042     ;MOVLW D'207'           ;RESULTADO DEL CALCULO PARA 2400 BAUDIOS. (RF).
                      00043     ;MOVWF SPBRG
Message[302]: Register in operand not in bank 0.  Ensure that bank bits are correct.
000B   0185           00044     CLRF TRISA              ;SALIDA PARA LOS LEDS.
000C   3011           00045     MOVLW B'00010001'
Message[302]: Register in operand not in bank 0.  Ensure that bank bits are correct.
000D   0086           00046     MOVWF TRISB             ;RBO/INT -> ENTRADA PARA INTERRUPCION PARA DETECCION DE CODIGO IR
000E   30F9           00047     MOVLW D'249'
Message[302]: Register in operand not in bank 0.  Ensure that bank bits are correct.
000F   0092           00048     MOVWF PR2
0010   1283           00049     BCF STATUS,RP0          ;BANCO 0.
0011   1303           00050     BCF STATUS,RP1          ;CONFIGURACION DEL PUERTO RX.
0012   0190           00051     CLRF T1CON
0013   018C           00052     CLRF PIR1
0014   018D           00053     CLRF PIR2
                      00054     ;MOVLW B'10010000'
                      00055     ;MOVWF RCSTA
                      00056     ;MOVLW B'11000000'      ;CONFIGURACION PARA INTERRUPCION RX.
                      00057     ;MOVWF INTCON           ;INTERRUPCION EUSART, PEIE Y GIE. (RF)
0015   3090           00058     MOVLW B'10010000'       ;HABILITACION DE INTERRUPCION EXTERNA (RBO/INT)
0016   008B           00059     MOVWF INTCON
0017   300C           00060     MOVLW B'00001100'
0018   0097           00061     MOVWF CCP1CON
0019   009D           00062     MOVWF CCP2CON
001A   30CC           00063     MOVLW D'204'
001B   0095           00064     MOVWF CCPR1L
001C   3000           00065     MOVLW D'0'
001D   009B           00066     MOVWF CCPR2L
001E   3005           00067     MOVLW B'00000101'
001F   0092           00068     MOVWF T2CON
0020   0185           00069     CLRF PORTA
                      00070     ;MOVF RCREG,W           ;Flush receive buffer
                      00071     ;MOVF RCREG,W
                      00072     ;MOVF RCREG,W
0021   01A1           00073     CLRF CONTADOR
0022   01A2           00074     CLRF CONTADOR_2
0023   01A7           00075     CLRF CONTADOR_TIEMPO
0024   01A3           00076     CLRF REC_BYTE1
0025   01A4           00077     CLRF REC_BYTE2
0026   01A0           00078     CLRF IR_FLAGS
0027   01A5           00079     CLRF GUARDA_W
0028   01A6           00080     CLRF GUARDA_STATUS
0029   2???           00081     GOTO PROGRAMA
                      00082 
                      00083 ;-------------------------------------------------------------------------------
                      00084 ;ESPERA AQUI HASTA QUE EL USUARIO HAGA UNA DESICION DEL MENU.
002A                  00085 ESPERA_CMD:
002A   10A0           00086     BCF IR_FLAGS,START_PASSED
002B   1283 1303      00087     BANKSEL IR_FLAGS
002D   1120           00088     BCF IR_FLAGS,END_RECV
MPASM 5.86                HONGOS_LUMIN73.ASM   9-24-2020  19:30:11         PAGE  3


LOC  OBJECT CODE     LINE SOURCE TEXT
  VALUE

002E                  00089 ESPERA_CMD_NUEVO:
002E   1920           00090     BTFSC IR_FLAGS,END_RECV
002F   2???           00091     GOTO PROGRAMA
0030   2???           00092     GOTO ESPERA_CMD_NUEVO
                      00093 ;MENU DE DESICIONES.
                      00094 ;-------------------------------------------------------------------------------
                      00095 
                      00096 ;-------------------------------------------------------------------------------
                      00097 ;CHECAR SI LOS CODIGOS RECIBIDOS CORRESPONDEN A ALGUN COMANDO.
0031                  00098 PROGRAMA:
0031   2???           00099     CALL RETARDO_30MS
0032   2???           00100     CALL RETARDO_30MS
0033   1283 1303      00101     BANKSEL REC_BYTE1
0035   0823           00102     MOVFW REC_BYTE1
0036   3A00           00103     XORLW 0x00
0037   1D03           00104     BTFSS STATUS,Z
0038   2???           00105     GOTO CHECK_CAMBIO_DUTY
0039   1283 1303      00106     BANKSEL REC_BYTE2
003B   0824           00107     MOVFW REC_BYTE2
003C   3A10           00108     XORLW 0x10
003D   1903           00109     BTFSC STATUS,Z
003E   2???           00110     GOTO CAMBIO_COLOR
                      00111 
003F                  00112 CHECK_CAMBIO_DUTY:
003F   1283 1303      00113     BANKSEL REC_BYTE1
0041   0823           00114     MOVFW REC_BYTE1
0042   3A08           00115     XORLW 0x08
0043   1D03           00116     BTFSS STATUS,Z
0044   2???           00117     GOTO CHECK_CAMBIO_AUTO
0045   1283 1303      00118     BANKSEL REC_BYTE2
0047   0824           00119     MOVFW REC_BYTE2
0048   3A10           00120     XORLW 0x10
0049   1903           00121     BTFSC STATUS,Z
004A   2???           00122     GOTO CAMBIO_DUTY
                      00123 
004B                  00124 CHECK_CAMBIO_AUTO:
004B   1283 1303      00125     BANKSEL REC_BYTE1
004D   0823           00126     MOVFW REC_BYTE1
004E   3A04           00127     XORLW 0x04
004F   1D03           00128     BTFSS STATUS,Z
0050   2???           00129     GOTO ESPERA_CMD
0051   1283 1303      00130     BANKSEL REC_BYTE2
0053   0824           00131     MOVFW REC_BYTE2
0054   3A10           00132     XORLW 0x10
0055   1903           00133     BTFSC STATUS,Z
0056   2???           00134     GOTO CAMBIO_AUTO
0057   2???           00135     GOTO ESPERA_CMD
                      00136 ;FIN DE COMPARACION DE CODIGOS DISPONIBLES.
                      00137 ;-------------------------------------------------------------------------------
                      00138 
                      00139 ;-------------------------------------------------------------------------------
                      00140 ;MODO MANUAL DE CAMBIO DE COLOR.
0058                  00141 CAMBIO_COLOR:
MPASM 5.86                HONGOS_LUMIN73.ASM   9-24-2020  19:30:11         PAGE  4


LOC  OBJECT CODE     LINE SOURCE TEXT
  VALUE

0058   1120           00142     BCF IR_FLAGS,END_RECV
0059   10A0           00143     BCF IR_FLAGS,START_PASSED
005A   30FF           00144     MOVLW D'255'
005B   009B           00145     MOVWF CCPR2L
005C   1283 1303      00146     BANKSEL CONTADOR
005E   0AA1           00147     INCF CONTADOR,1
005F   0821           00148     MOVFW CONTADOR
0060   3907           00149     ANDLW D'7'
0061   0085           00150     MOVWF PORTA
0062   2???           00151     GOTO ESPERA_CMD
                      00152 ;FIN FUNCION
                      00153 ;-------------------------------------------------------------------------------
                      00154 
                      00155 ;-------------------------------------------------------------------------------
                      00156 ;CAMBIO DE BRILLO DEL LED.
0063                  00157 CAMBIO_DUTY:
0063   1120           00158     BCF IR_FLAGS,END_RECV
0064   10A0           00159     BCF IR_FLAGS,START_PASSED
0065   3033           00160     MOVLW D'51'
0066   0795           00161     ADDWF CCPR1L,1
0067   2???           00162     GOTO ESPERA_CMD
                      00163 ;FIN FUNCION.
                      00164 ;-------------------------------------------------------------------------------
                      00165 
                      00166 ;-------------------------------------------------------------------------------
                      00167 ;MODO DE CAMBIO AUTOMATICO DE COLORES.
0068                  00168 CAMBIO_AUTO:
0068   1120           00169     BCF IR_FLAGS,END_RECV
0069   10A0           00170     BCF IR_FLAGS,START_PASSED
006A   3000           00171     MOVLW 0x00
006B   009B           00172     MOVWF CCPR2L
006C                  00173 REPETICION:
006C   1283 1303      00174     BANKSEL CONTADOR
006E   0AA1           00175     INCF CONTADOR,1
006F   0821           00176     MOVFW CONTADOR
0070   3907           00177     ANDLW D'7'
0071   0085           00178     MOVWF PORTA
0072   1283 1303      00179     BANKSEL CONTADOR_TIEMPO
0074   30FF           00180     MOVLW 0xFF
0075   00A7           00181     MOVWF CONTADOR_TIEMPO
0076                  00182 LED_BRILLO:
0076   1920           00183     BTFSC IR_FLAGS,END_RECV
0077   2???           00184     GOTO ESPERA_CMD
0078   2???           00185     CALL CAMBIO_RETARDO_15MS
0079   0A9B           00186     INCF CCPR2L,1
007A   0BA7           00187     DECFSZ CONTADOR_TIEMPO,F
007B   2???           00188     GOTO LED_BRILLO
007C   2???           00189     CALL CAMBIO_RETARDO_15MS
007D   30FF           00190     MOVLW 0xFF
007E   00A7           00191     MOVWF CONTADOR_TIEMPO
007F                  00192 LED_APAGADO:
007F   1920           00193     BTFSC IR_FLAGS,END_RECV
0080   2???           00194     GOTO ESPERA_CMD
MPASM 5.86                HONGOS_LUMIN73.ASM   9-24-2020  19:30:11         PAGE  5


LOC  OBJECT CODE     LINE SOURCE TEXT
  VALUE

0081   2???           00195     CALL CAMBIO_RETARDO_15MS
0082   039B           00196     DECF CCPR2L,1
0083   0BA7           00197     DECFSZ CONTADOR_TIEMPO,F
0084   2???           00198     GOTO LED_APAGADO
0085   2???           00199     GOTO REPETICION
                      00200 ;FIN FUNCION.
                      00201 ;-------------------------------------------------------------------------------
                      00202 
                      00203 ;INTERRUPCION PARA RECEPCION DE DATOS A TRAVES DEL USART. (RF)
                      00204 ;INTERRUPCION:
                      00205 ;    MOVWF GUARDA_W
                      00206 ;    SWAPF STATUS,W
                      00207 ;    MOVWF GUARDA_STATUS
                      00208 ;    BCF STATUS,RP0
                      00209 ;    BCF STATUS,RP1
                      00210 ;GUARDADO:
                      00211 ;    BTFSS PIR1,RCIF        ;CHECAR SI LA INTERRUPCION ES DEL USART.
                      00212 ;    GOTO EXIT 
                      00213 ;    BTFSC UART,RX_BYTE     ;SI RX_BIT ESTA ALTO, ENTONCES RXREG NO SE HA PROCESADO AUN.
                      00214 ;    GOTO EXIT
                      00215 ;    MOVFW RCREG                    ;Read input byte into W
                      00216 ;    MOVWF TEMP             ;Store received byte to shared RAM
                      00217 ;    BSF UART,RX_BYTE
                      00218 ;    MOVFW RCREG                    ;PUEDE HABER UN SEGUNDO BYTE.
                      00219 ;    BCF RCSTA,CREN
                      00220 ;    BSF RCSTA,CREN
                      00221 ;EXIT:
                      00222 ;    MOVFW RCREG
                      00223 ;    MOVFW RCREG
                      00224 ;    SWAPF GUARDA_STATUS,W
                      00225 ;    MOVWF STATUS
                      00226 ;    SWAPF GUARDA_W,F
                      00227 ;    SWAPF GUARDA_W,W
                      00228 ;    RETFIE
                      00229 
                      00230 ;-------------------------------------------------------------------------------
                      00231 ;INTERRUPCION PARA RECEPCION DE DATOS A TRAVES DE SALIDA EXTERNA. (IR)
0086                  00232 INT_HANDLE:
0086   00A5           00233     MOVWF GUARDA_W
0087   0E03           00234     SWAPF STATUS,W
0088   00A6           00235     MOVWF GUARDA_STATUS
0089   1283           00236     BCF STATUS,RP0
008A                  00237 HANDLE:
008A   18A0           00238     BTFSC IR_FLAGS,START_PASSED
008B   2???           00239     GOTO IR_RCV
008C   2???           00240     CALL RETARDO_2500MICROS
008D   1E06           00241     BTFSS PORTB,4
008E   2???           00242     GOTO VERIFICACION_2
008F   14A0           00243     BSF IR_FLAGS,START_PASSED
0090   01A3           00244     CLRF REC_BYTE1
0091   01A4           00245     CLRF REC_BYTE2
0092   01A2           00246     CLRF CONTADOR_2
0093   1120           00247     BCF IR_FLAGS,END_RECV
MPASM 5.86                HONGOS_LUMIN73.ASM   9-24-2020  19:30:11         PAGE  6


LOC  OBJECT CODE     LINE SOURCE TEXT
  VALUE

0094   2???           00248     GOTO VERIFICACION_2
0095                  00249 IR_RCV:
0095   0AA2           00250     INCF CONTADOR_2,1
0096   2???           00251     CALL RETARDO_900MICROS
0097   1E06           00252     BTFSS PORTB,4
0098   2???           00253     GOTO UNO
0099                  00254 CERO:
0099   1003           00255     BCF STATUS,C
Message[305]: Using default destination of 1 (file).
009A   0DA4           00256     RLF REC_BYTE2
Message[305]: Using default destination of 1 (file).
009B   0DA3           00257     RLF REC_BYTE1
009C   1003           00258     BCF STATUS,C
009D   2???           00259     GOTO VERIFICACION_2
009E                  00260 UNO:
009E   1403           00261     BSF STATUS,C
Message[305]: Using default destination of 1 (file).
009F   0DA4           00262     RLF REC_BYTE2
Message[305]: Using default destination of 1 (file).
00A0   0DA3           00263     RLF REC_BYTE1
00A1   1003           00264     BCF STATUS,C
00A2                  00265 VERIFICACION_2:
00A2   1283 1303      00266     BANKSEL CONTADOR_2
00A4   0822           00267     MOVFW CONTADOR_2
00A5   3A0C           00268     XORLW D'12'
00A6   1903           00269     BTFSC STATUS,Z
00A7   1520           00270     BSF IR_FLAGS,END_RECV
00A8   0E26           00271     SWAPF GUARDA_STATUS,W
00A9   0083           00272     MOVWF STATUS
00AA   0EA5           00273     SWAPF GUARDA_W,F
00AB   0E25           00274     SWAPF GUARDA_W,W
00AC   108B           00275     BCF INTCON,INTF
00AD   0009           00276     RETFIE
                      00277 ;FIN INTERRUPCION.
                      00278 ;-------------------------------------------------------------------------------
                      00279     
                      00280 ;RETARDO DE 2.5MS USANDO TIMER0.
00AE                  00281 RETARDO_2500MICROS:
00AE   110B           00282     BCF INTCON,T0IF
00AF   3064           00283     MOVLW D'100'
00B0   0081           00284     MOVWF TMR0
00B1                  00285 COMPROBAR:
00B1   1D0B           00286     BTFSS INTCON,T0IF
00B2   2???           00287     GOTO COMPROBAR
00B3   0008           00288     RETURN
                      00289     
                      00290 ;RETARDO DE 900 MICROS USANDO TIMER0.
00B4                  00291 RETARDO_900MICROS:
00B4   110B           00292     BCF INTCON,T0IF
00B5   30C8           00293     MOVLW D'200'
00B6   0081           00294     MOVWF TMR0
00B7                  00295 COMPROBAR_2:
00B7   1D0B           00296     BTFSS INTCON,T0IF
MPASM 5.86                HONGOS_LUMIN73.ASM   9-24-2020  19:30:11         PAGE  7


LOC  OBJECT CODE     LINE SOURCE TEXT
  VALUE

00B8   2???           00297     GOTO COMPROBAR_2
00B9   0008           00298     RETURN
                      00299 
                      00300 ;TIEMPO ENTRE CAMBIO DE COLORES EN EL MODO AUTOMATICO DEL LED RGB.
00BA                  00301 CAMBIO_RETARDO_15MS:   
00BA   1010           00302     BCF T1CON,TMR1ON
00BB   3065           00303     MOVLW 0x65
00BC   008F           00304     MOVWF TMR1H
00BD   3068           00305     MOVLW 0x68
00BE   008E           00306     MOVWF TMR1L
00BF   1410           00307     BSF T1CON,TMR1ON
00C0                  00308 RETARDO_15MS_4_0:
00C0   1C0C           00309     BTFSS PIR1,TMR1IF
00C1   2???           00310     GOTO RETARDO_15MS_4_0
00C2   1010           00311     BCF T1CON,TMR1ON
00C3   100C           00312     BCF PIR1,TMR1IF
00C4   0008           00313     RETURN
                      00314     
                      00315     
00C5                  00316 RETARDO_30MS: 
00C5   1010           00317     BCF T1CON,TMR1ON
00C6   308A           00318     MOVLW 0x8A
00C7   008F           00319     MOVWF TMR1H
00C8   30D0           00320     MOVLW 0xD0
00C9   008E           00321     MOVWF TMR1L
00CA   1410           00322     BSF T1CON,TMR1ON
00CB                  00323 RETARDO_30MS_4_0:
00CB   1C0C           00324     BTFSS PIR1,TMR1IF
00CC   2???           00325     GOTO RETARDO_30MS_4_0
00CD   1010           00326     BCF T1CON,TMR1ON
00CE   100C           00327     BCF PIR1,TMR1IF
00CF   0008           00328     RETURN
3FF2                  00329     END
MPASM 5.86                HONGOS_LUMIN73.ASM   9-24-2020  19:30:11         PAGE  8


SYMBOL TABLE
  LABEL                             VALUE 

ADCON0                            0000001F
ADCON1                            0000009F
ADCS0                             00000006
ADCS1                             00000007
ADIE                              00000006
ADIF                              00000006
ADON                              00000000
ADRES                             0000001E
BF                                00000000
BRGH                              00000002
C                                 00000000
CAMBIO_AUTO                       00000068
CAMBIO_COLOR                      00000058
CAMBIO_DUTY                       00000063
CAMBIO_RETARDO_15MS               000000BA
CCP1CON                           00000017
CCP1IE                            00000002
CCP1IF                            00000002
CCP1M0                            00000000
CCP1M1                            00000001
CCP1M2                            00000002
CCP1M3                            00000003
CCP1X                             00000005
CCP1Y                             00000004
CCP2CON                           0000001D
CCP2IE                            00000000
CCP2IF                            00000000
CCP2M0                            00000000
CCP2M1                            00000001
CCP2M2                            00000002
CCP2M3                            00000003
CCP2X                             00000005
CCP2Y                             00000004
CCPR1                             00000015
CCPR1H                            00000016
CCPR1L                            00000015
CCPR2                             0000001B
CCPR2H                            0000001C
CCPR2L                            0000001B
CERO                              00000099
CHECK_CAMBIO_AUTO                 0000004B
CHECK_CAMBIO_DUTY                 0000003F
CHS0                              00000003
CHS1                              00000004
CHS2                              00000005
CKE                               00000006
CKP                               00000004
COMPROBAR                         000000B1
COMPROBAR_2                       000000B7
CONTADOR                          00000021
CONTADOR_2                        00000022
CONTADOR_TIEMPO                   00000027
CREN                              00000004
MPASM 5.86                HONGOS_LUMIN73.ASM   9-24-2020  19:30:11         PAGE  9


SYMBOL TABLE
  LABEL                             VALUE 

CSRC                              00000007
D                                 00000005
DATA_ADDRESS                      00000005
DC                                00000001
D_A                               00000005
D_NOT_A                           00000005
END_RECV                          00000002
ESPERA_CMD                        0000002A
ESPERA_CMD_NUEVO                  0000002E
F                                 00000001
FERR                              00000002
FSR                               00000004
GIE                               00000007
GO                                00000002
GO_DONE                           00000002
GO_NOT_DONE                       00000002
GUARDA_STATUS                     00000026
GUARDA_W                          00000025
HANDLE                            0000008A
I2C_DATA                          00000005
I2C_READ                          00000002
I2C_START                         00000003
I2C_STOP                          00000004
INDF                              00000000
INTCON                            0000000B
INTE                              00000004
INTEDG                            00000006
INTF                              00000001
INT_HANDLE                        00000086
IRP                               00000007
IR_FLAGS                          00000020
IR_RCV                            00000095
LED_APAGADO                       0000007F
LED_BRILLO                        00000076
NOT_A                             00000005
NOT_ADDRESS                       00000005
NOT_BO                            00000000
NOT_BOR                           00000000
NOT_DONE                          00000002
NOT_PD                            00000003
NOT_POR                           00000001
NOT_RBPU                          00000007
NOT_RC8                           00000006
NOT_T1SYNC                        00000002
NOT_TO                            00000004
NOT_TX8                           00000006
NOT_W                             00000002
NOT_WRITE                         00000002
OERR                              00000001
OPTION_REG                        00000081
P                                 00000004
PCFG0                             00000000
PCFG1                             00000001
MPASM 5.86                HONGOS_LUMIN73.ASM   9-24-2020  19:30:11         PAGE 10


SYMBOL TABLE
  LABEL                             VALUE 

PCFG2                             00000002
PCL                               00000002
PCLATH                            0000000A
PCON                              0000008E
PEIE                              00000006
PIE1                              0000008C
PIE2                              0000008D
PIR1                              0000000C
PIR2                              0000000D
PMADR                             0000010D
PMADRH                            0000010F
PMCON1                            0000018C
PMDATA                            0000010C
PMDATH                            0000010E
PORTA                             00000005
PORTB                             00000006
PORTC                             00000007
PR2                               00000092
PROGRAMA                          00000031
PS0                               00000000
PS1                               00000001
PS2                               00000002
PSA                               00000003
R                                 00000002
RA0                               00000000
RA1                               00000001
RA2                               00000002
RA3                               00000003
RA4                               00000004
RA5                               00000005
RB0                               00000000
RB1                               00000001
RB2                               00000002
RB3                               00000003
RB4                               00000004
RB5                               00000005
RB6                               00000006
RB7                               00000007
RBIE                              00000003
RBIF                              00000000
RC0                               00000000
RC1                               00000001
RC2                               00000002
RC3                               00000003
RC4                               00000004
RC5                               00000005
RC6                               00000006
RC7                               00000007
RC8_9                             00000006
RC9                               00000006
RCD8                              00000000
RCIE                              00000005
RCIF                              00000005
MPASM 5.86                HONGOS_LUMIN73.ASM   9-24-2020  19:30:11         PAGE 11


SYMBOL TABLE
  LABEL                             VALUE 

RCREG                             0000001A
RCSTA                             00000018
RD                                00000000
READ_WRITE                        00000002
REC_BYTE1                         00000023
REC_BYTE2                         00000024
REPETICION                        0000006C
RETARDO_15MS_4_0                  000000C0
RETARDO_2500MICROS                000000AE
RETARDO_30MS                      000000C5
RETARDO_30MS_4_0                  000000CB
RETARDO_900MICROS                 000000B4
RP0                               00000005
RP1                               00000006
RX9                               00000006
RX9D                              00000000
R_NOT_W                           00000002
R_W                               00000002
S                                 00000003
SETUP                             00000005
SMP                               00000007
SPBRG                             00000099
SPEN                              00000007
SREN                              00000005
SSPADD                            00000093
SSPBUF                            00000013
SSPCON                            00000014
SSPEN                             00000005
SSPIE                             00000003
SSPIF                             00000003
SSPM0                             00000000
SSPM1                             00000001
SSPM2                             00000002
SSPM3                             00000003
SSPOV                             00000006
SSPSTAT                           00000094
START_PASSED                      00000001
STATUS                            00000003
SYNC                              00000004
T0CS                              00000005
T0IE                              00000005
T0IF                              00000002
T0SE                              00000004
T1CKPS0                           00000004
T1CKPS1                           00000005
T1CON                             00000010
T1INSYNC                          00000002
T1OSCEN                           00000003
T2CKPS0                           00000000
T2CKPS1                           00000001
T2CON                             00000012
TMR0                              00000001
TMR0IE                            00000005
MPASM 5.86                HONGOS_LUMIN73.ASM   9-24-2020  19:30:11         PAGE 12


SYMBOL TABLE
  LABEL                             VALUE 

TMR0IF                            00000002
TMR1                              0000000E
TMR1CS                            00000001
TMR1H                             0000000F
TMR1IE                            00000000
TMR1IF                            00000000
TMR1L                             0000000E
TMR1ON                            00000000
TMR2                              00000011
TMR2IE                            00000001
TMR2IF                            00000001
TMR2ON                            00000002
TOUTPS0                           00000003
TOUTPS1                           00000004
TOUTPS2                           00000005
TOUTPS3                           00000006
TRISA                             00000085
TRISA0                            00000000
TRISA1                            00000001
TRISA2                            00000002
TRISA3                            00000003
TRISA4                            00000004
TRISA5                            00000005
TRISB                             00000086
TRISB0                            00000000
TRISB1                            00000001
TRISB2                            00000002
TRISB3                            00000003
TRISB4                            00000004
TRISB5                            00000005
TRISB6                            00000006
TRISB7                            00000007
TRISC                             00000087
TRISC0                            00000000
TRISC1                            00000001
TRISC2                            00000002
TRISC3                            00000003
TRISC4                            00000004
TRISC5                            00000005
TRISC6                            00000006
TRISC7                            00000007
TRMT                              00000001
TX8_9                             00000006
TX9                               00000006
TX9D                              00000000
TXD8                              00000000
TXEN                              00000005
TXIE                              00000004
TXIF                              00000004
TXREG                             00000019
TXSTA                             00000098
UA                                00000001
UNO                               0000009E
MPASM 5.86                HONGOS_LUMIN73.ASM   9-24-2020  19:30:11         PAGE 13


SYMBOL TABLE
  LABEL                             VALUE 

VERIFICACION_2                    000000A2
W                                 00000000
WCOL                              00000007
Z                                 00000002
_BODEN_OFF                        00003FBF
_BODEN_ON                         00003FFF
_BOREN_OFF                        00003FBF
_BOREN_ON                         00003FFF
_CONFIG                           00002007
_CP_ALL                           00003FEF
_CP_OFF                           00003FFF
_CP_ON                            00003FEF
_DEVID1                           00002006
_FOSC_HS                          00003FFE
_FOSC_LP                          00003FFC
_FOSC_RC                          00003FFF
_FOSC_XT                          00003FFD
_HS_OSC                           00003FFE
_IDLOC0                           00002000
_IDLOC1                           00002001
_IDLOC2                           00002002
_IDLOC3                           00002003
_LP_OSC                           00003FFC
_PWRTE_OFF                        00003FFF
_PWRTE_ON                         00003FF7
_RC_OSC                           00003FFF
_WDTE_OFF                         00003FFB
_WDTE_ON                          00003FFF
_WDT_OFF                          00003FFB
_WDT_ON                           00003FFF
_XT_OSC                           00003FFD
__16F73                           00000001

Errors   :     0
Warnings :     2 reported,     0 suppressed
Messages :    10 reported,     0 suppressed

