MPLINK 5.09, LINKER
Linker Map File - Created Tue Aug 25 19:21:51 2020

                                 Section Info
                  Section       Type    Address   Location Size(Bytes)
                ---------  ---------  ---------  ---------  ---------
                   .org_0       code   0x000000    program   0x0000ae
                   .cinit    romdata   0x000057    program   0x000004
.config_2007_BUILD/DEFAULT/PRODUCTION/RECEPTO       code   0x002007    program   0x000002
.config_2008_BUILD/DEFAULT/PRODUCTION/RECEPTO       code   0x002008    program   0x000002



                              Program Memory Usage 
                               Start         End      
                           ---------   ---------      
                            0x000000    0x000058      
                            0x002007    0x002008      
            91 out of 8455 program addresses used, program memory utilization is 1%



                              Symbols - Sorted by Name
                     Name    Address   Location    Storage File                     
                ---------  ---------  ---------  --------- ---------                
                  ACT_RLF   0x000008    program     static E:\Proyectos\PIC\IR (Control infrarojo)\IR.X\RECEPTOR_IR.asm
                    BUCLE   0x000023    program     static E:\Proyectos\PIC\IR (Control infrarojo)\IR.X\IR.inc
               BUCLE_SEND   0x00003a    program     static E:\Proyectos\PIC\IR (Control infrarojo)\IR.X\IR.inc
                     BYTE   0x00001a    program     static E:\Proyectos\PIC\IR (Control infrarojo)\IR.X\IR.inc
                CURR_TIME   0x000015    program     static E:\Proyectos\PIC\IR (Control infrarojo)\IR.X\IR.inc
                    ENVIO   0x00003f    program     static E:\Proyectos\PIC\IR (Control infrarojo)\IR.X\IR.inc
                    FINAL   0x000031    program     static E:\Proyectos\PIC\IR (Control infrarojo)\IR.X\IR.inc
                 IR_FLAGS   0x000014    program     static E:\Proyectos\PIC\IR (Control infrarojo)\IR.X\IR.inc
                IRcarrier   0x000022    program     static E:\Proyectos\PIC\IR (Control infrarojo)\IR.X\IR.inc
                   IRsend   0x000033    program     static E:\Proyectos\PIC\IR (Control infrarojo)\IR.X\IR.inc
                  IRsetup   0x00001b    program     static E:\Proyectos\PIC\IR (Control infrarojo)\IR.X\IR.inc
               PULSE_TIME   0x000016    program     static E:\Proyectos\PIC\IR (Control infrarojo)\IR.X\IR.inc
                      REC   0x000005    program     static E:\Proyectos\PIC\IR (Control infrarojo)\IR.X\RECEPTOR_IR.asm
                REC_BYTE1   0x000018    program     static E:\Proyectos\PIC\IR (Control infrarojo)\IR.X\IR.inc
                REC_BYTE2   0x000019    program     static E:\Proyectos\PIC\IR (Control infrarojo)\IR.X\IR.inc
               RETARDO_13   0x000027    program     static E:\Proyectos\PIC\IR (Control infrarojo)\IR.X\IR.inc
  RETARDO_13MICROS_16_0_1   0x000029    program     static E:\Proyectos\PIC\IR (Control infrarojo)\IR.X\IR.inc
  RETARDO_13MICROS_16_0_2   0x00002e    program     static E:\Proyectos\PIC\IR (Control infrarojo)\IR.X\IR.inc
  RETARDO_1686MICROS_16_0   0x000011    program     static E:\Proyectos\PIC\IR (Control infrarojo)\IR.X\RECEPTOR_IR.asm
RETARDO_1686MICROS_16_0_2   0x00004c    program     static E:\Proyectos\PIC\IR (Control infrarojo)\IR.X\IR.inc
   RETARDO_562MICROS_16_0   0x000054    program     static E:\Proyectos\PIC\IR (Control infrarojo)\IR.X\IR.inc
                 ROTACION   0x000044    program     static E:\Proyectos\PIC\IR (Control infrarojo)\IR.X\IR.inc
                   SEND_0   0x00004f    program     static E:\Proyectos\PIC\IR (Control infrarojo)\IR.X\IR.inc
                   SEND_1   0x000047    program     static E:\Proyectos\PIC\IR (Control infrarojo)\IR.X\IR.inc
               SPACE_TIME   0x000017    program     static E:\Proyectos\PIC\IR (Control infrarojo)\IR.X\IR.inc



                              Symbols - Sorted by Address
                     Name    Address   Location    Storage File                     
                ---------  ---------  ---------  --------- ---------                
                      REC   0x000005    program     static E:\Proyectos\PIC\IR (Control infrarojo)\IR.X\RECEPTOR_IR.asm
                  ACT_RLF   0x000008    program     static E:\Proyectos\PIC\IR (Control infrarojo)\IR.X\RECEPTOR_IR.asm
  RETARDO_1686MICROS_16_0   0x000011    program     static E:\Proyectos\PIC\IR (Control infrarojo)\IR.X\RECEPTOR_IR.asm
                 IR_FLAGS   0x000014    program     static E:\Proyectos\PIC\IR (Control infrarojo)\IR.X\IR.inc
                CURR_TIME   0x000015    program     static E:\Proyectos\PIC\IR (Control infrarojo)\IR.X\IR.inc
               PULSE_TIME   0x000016    program     static E:\Proyectos\PIC\IR (Control infrarojo)\IR.X\IR.inc
               SPACE_TIME   0x000017    program     static E:\Proyectos\PIC\IR (Control infrarojo)\IR.X\IR.inc
                REC_BYTE1   0x000018    program     static E:\Proyectos\PIC\IR (Control infrarojo)\IR.X\IR.inc
                REC_BYTE2   0x000019    program     static E:\Proyectos\PIC\IR (Control infrarojo)\IR.X\IR.inc
                     BYTE   0x00001a    program     static E:\Proyectos\PIC\IR (Control infrarojo)\IR.X\IR.inc
                  IRsetup   0x00001b    program     static E:\Proyectos\PIC\IR (Control infrarojo)\IR.X\IR.inc
                IRcarrier   0x000022    program     static E:\Proyectos\PIC\IR (Control infrarojo)\IR.X\IR.inc
                    BUCLE   0x000023    program     static E:\Proyectos\PIC\IR (Control infrarojo)\IR.X\IR.inc
               RETARDO_13   0x000027    program     static E:\Proyectos\PIC\IR (Control infrarojo)\IR.X\IR.inc
  RETARDO_13MICROS_16_0_1   0x000029    program     static E:\Proyectos\PIC\IR (Control infrarojo)\IR.X\IR.inc
  RETARDO_13MICROS_16_0_2   0x00002e    program     static E:\Proyectos\PIC\IR (Control infrarojo)\IR.X\IR.inc
                    FINAL   0x000031    program     static E:\Proyectos\PIC\IR (Control infrarojo)\IR.X\IR.inc
                   IRsend   0x000033    program     static E:\Proyectos\PIC\IR (Control infrarojo)\IR.X\IR.inc
               BUCLE_SEND   0x00003a    program     static E:\Proyectos\PIC\IR (Control infrarojo)\IR.X\IR.inc
                    ENVIO   0x00003f    program     static E:\Proyectos\PIC\IR (Control infrarojo)\IR.X\IR.inc
                 ROTACION   0x000044    program     static E:\Proyectos\PIC\IR (Control infrarojo)\IR.X\IR.inc
                   SEND_1   0x000047    program     static E:\Proyectos\PIC\IR (Control infrarojo)\IR.X\IR.inc
RETARDO_1686MICROS_16_0_2   0x00004c    program     static E:\Proyectos\PIC\IR (Control infrarojo)\IR.X\IR.inc
                   SEND_0   0x00004f    program     static E:\Proyectos\PIC\IR (Control infrarojo)\IR.X\IR.inc
   RETARDO_562MICROS_16_0   0x000054    program     static E:\Proyectos\PIC\IR (Control infrarojo)\IR.X\IR.inc


