MPLINK 5.09, LINKER
Linker Map File - Created Fri Aug 21 19:59:25 2020

                                 Section Info
                  Section       Type    Address   Location Size(Bytes)
                ---------  ---------  ---------  ---------  ---------
                   .org_0       code   0x000000    program   0x00045c
                   .cinit    romdata   0x00022e    program   0x000004
.config_2007_BUILD/DEFAULT/PRODUCTION/RECEPTO       code   0x002007    program   0x000002
.config_2008_BUILD/DEFAULT/PRODUCTION/RECEPTO       code   0x002008    program   0x000002



                              Program Memory Usage 
                               Start         End      
                           ---------   ---------      
                            0x000000    0x00022f      
                            0x002007    0x002008      
            562 out of 8455 program addresses used, program memory utilization is 6%



                              Symbols - Sorted by Name
                     Name    Address   Location    Storage File                     
                ---------  ---------  ---------  --------- ---------                
                  BITS_IR   0x0001f1    program     static E:\Proyectos\PIC\IR (Control infrarojo)\IR.X\IR.inc
                    BUCLE   0x0001fb    program     static E:\Proyectos\PIC\IR (Control infrarojo)\IR.X\IR.inc
               BUCLE_SEND   0x000210    program     static E:\Proyectos\PIC\IR (Control infrarojo)\IR.X\IR.inc
        COMPROBAR_OCUPADO   0x00017b    program     static E:\Proyectos\PIC\IR (Control infrarojo)\IR.X\LCD.inc
               CONTADOR_2   0x0001f0    program     static E:\Proyectos\PIC\IR (Control infrarojo)\IR.X\IR.inc
                  COUNTER   0x0001ef    program     static E:\Proyectos\PIC\IR (Control infrarojo)\IR.X\IR.inc
                CURR_TIME   0x0001ea    program     static E:\Proyectos\PIC\IR (Control infrarojo)\IR.X\IR.inc
        ESCRIBIR_CARACTER   0x00019b    program     static E:\Proyectos\PIC\IR (Control infrarojo)\IR.X\LCD.inc
         ESCRIBIR_COMANDO   0x000168    program     static E:\Proyectos\PIC\IR (Control infrarojo)\IR.X\LCD.inc
                    FINAL   0x00020c    program     static E:\Proyectos\PIC\IR (Control infrarojo)\IR.X\IR.inc
               FINAL_SEND   0x00022d    program     static E:\Proyectos\PIC\IR (Control infrarojo)\IR.X\IR.inc
INICIALIZACION_DE_PANTALLA   0x0001b2    program     static E:\Proyectos\PIC\IR (Control infrarojo)\IR.X\LCD.inc
                 IR_FLAGS   0x0001e9    program     static E:\Proyectos\PIC\IR (Control infrarojo)\IR.X\IR.inc
                IRcarrier   0x0001f8    program     static E:\Proyectos\PIC\IR (Control infrarojo)\IR.X\IR.inc
                   IRsend   0x00020e    program     static E:\Proyectos\PIC\IR (Control infrarojo)\IR.X\IR.inc
                  IRsetup   0x0001f2    program     static E:\Proyectos\PIC\IR (Control infrarojo)\IR.X\IR.inc
               PULSE_TIME   0x0001eb    program     static E:\Proyectos\PIC\IR (Control infrarojo)\IR.X\IR.inc
    R1DECIMA_BUCLEEXTERNO   0x000052    program     static E:\Proyectos\PIC\IR (Control infrarojo)\IR.X\RETARDOS.inc
   R1DECIMA_BUCLEEXTERNO2   0x000050    program     static E:\Proyectos\PIC\IR (Control infrarojo)\IR.X\RETARDOS.inc
    R1DECIMA_BUCLEINTERNO   0x000054    program     static E:\Proyectos\PIC\IR (Control infrarojo)\IR.X\RETARDOS.inc
        R1MS_BUCLEEXTERNO   0x00003c    program     static E:\Proyectos\PIC\IR (Control infrarojo)\IR.X\RETARDOS.inc
        R1MS_BUCLEINTERNO   0x00003e    program     static E:\Proyectos\PIC\IR (Control infrarojo)\IR.X\RETARDOS.inc
                REC_BYTE1   0x0001ed    program     static E:\Proyectos\PIC\IR (Control infrarojo)\IR.X\IR.inc
                REC_BYTE2   0x0001ee    program     static E:\Proyectos\PIC\IR (Control infrarojo)\IR.X\IR.inc
            RETARDOMICROS   0x000028    program     static E:\Proyectos\PIC\IR (Control infrarojo)\IR.X\RETARDOS.inc
              RETARDOS_MS   0x00003b    program     static E:\Proyectos\PIC\IR (Control infrarojo)\IR.X\RETARDOS.inc
        RETARDO_100MICROS   0x000022    program     static E:\Proyectos\PIC\IR (Control infrarojo)\IR.X\RETARDOS.inc
     RETARDO_100MICROS_16   0x000072    program     static E:\Proyectos\PIC\IR (Control infrarojo)\IR.X\RETARDOS_16MHZ.inc
   RETARDO_100MICROS_16_0   0x000074    program     static E:\Proyectos\PIC\IR (Control infrarojo)\IR.X\RETARDOS_16MHZ.inc
            RETARDO_100MS   0x00002e    program     static E:\Proyectos\PIC\IR (Control infrarojo)\IR.X\RETARDOS.inc
         RETARDO_10MICROS   0x000015    program     static E:\Proyectos\PIC\IR (Control infrarojo)\IR.X\RETARDOS.inc
      RETARDO_10MICROS_16   0x000087    program     static E:\Proyectos\PIC\IR (Control infrarojo)\IR.X\RETARDOS_16MHZ.inc
    RETARDO_10MICROS_16_0   0x000089    program     static E:\Proyectos\PIC\IR (Control infrarojo)\IR.X\RETARDOS_16MHZ.inc
             RETARDO_10MS   0x000034    program     static E:\Proyectos\PIC\IR (Control infrarojo)\IR.X\RETARDOS.inc
              RETARDO_10S   0x000046    program     static E:\Proyectos\PIC\IR (Control infrarojo)\IR.X\RETARDOS.inc
         RETARDO_12MICROS   0x000013    program     static E:\Proyectos\PIC\IR (Control infrarojo)\IR.X\RETARDOS.inc
      RETARDO_13MICROS_16   0x000082    program     static E:\Proyectos\PIC\IR (Control infrarojo)\IR.X\RETARDOS_16MHZ.inc
    RETARDO_13MICROS_16_0   0x000084    program     static E:\Proyectos\PIC\IR (Control infrarojo)\IR.X\RETARDOS_16MHZ.inc
  RETARDO_13MICROS_16_0_1   0x000204    program     static E:\Proyectos\PIC\IR (Control infrarojo)\IR.X\IR.inc
  RETARDO_13MICROS_16_0_2   0x000209    program     static E:\Proyectos\PIC\IR (Control infrarojo)\IR.X\IR.inc
          RETARDO_1DECIMA   0x00004f    program     static E:\Proyectos\PIC\IR (Control infrarojo)\IR.X\RETARDOS.inc
              RETARDO_1MS   0x00003a    program     static E:\Proyectos\PIC\IR (Control infrarojo)\IR.X\RETARDOS.inc
               RETARDO_1S   0x00004c    program     static E:\Proyectos\PIC\IR (Control infrarojo)\IR.X\RETARDOS.inc
        RETARDO_200MICROS   0x00001f    program     static E:\Proyectos\PIC\IR (Control infrarojo)\IR.X\RETARDOS.inc
            RETARDO_200MS   0x00002c    program     static E:\Proyectos\PIC\IR (Control infrarojo)\IR.X\RETARDOS.inc
         RETARDO_20MICROS   0x000027    program     static E:\Proyectos\PIC\IR (Control infrarojo)\IR.X\RETARDOS.inc
      RETARDO_20MICROS_16   0x00007d    program     static E:\Proyectos\PIC\IR (Control infrarojo)\IR.X\RETARDOS_16MHZ.inc
    RETARDO_20MICROS_16_0   0x00007f    program     static E:\Proyectos\PIC\IR (Control infrarojo)\IR.X\RETARDOS_16MHZ.inc
             RETARDO_20MS   0x000032    program     static E:\Proyectos\PIC\IR (Control infrarojo)\IR.X\RETARDOS.inc
              RETARDO_20S   0x000044    program     static E:\Proyectos\PIC\IR (Control infrarojo)\IR.X\RETARDOS.inc
              RETARDO_2MS   0x000038    program     static E:\Proyectos\PIC\IR (Control infrarojo)\IR.X\RETARDOS.inc
               RETARDO_2S   0x00004a    program     static E:\Proyectos\PIC\IR (Control infrarojo)\IR.X\RETARDOS.inc
            RETARDO_2S_16   0x000118    program     static E:\Proyectos\PIC\IR (Control infrarojo)\IR.X\RETARDOS_16MHZ.inc
          RETARDO_2S_16_0   0x00011e    program     static E:\Proyectos\PIC\IR (Control infrarojo)\IR.X\RETARDOS_16MHZ.inc
          RETARDO_4MICROS   0x00001b    program     static E:\Proyectos\PIC\IR (Control infrarojo)\IR.X\RETARDOS.inc
        RETARDO_500MICROS   0x00001c    program     static E:\Proyectos\PIC\IR (Control infrarojo)\IR.X\RETARDOS.inc
     RETARDO_500MICROS_16   0x00005c    program     static E:\Proyectos\PIC\IR (Control infrarojo)\IR.X\RETARDOS_16MHZ.inc
   RETARDO_500MICROS_16_0   0x000060    program     static E:\Proyectos\PIC\IR (Control infrarojo)\IR.X\RETARDOS_16MHZ.inc
            RETARDO_500MS   0x00004e    program     static E:\Proyectos\PIC\IR (Control infrarojo)\IR.X\RETARDOS.inc
         RETARDO_500MS_16   0x000136    program     static E:\Proyectos\PIC\IR (Control infrarojo)\IR.X\RETARDOS_16MHZ.inc
       RETARDO_500MS_16_0   0x00013c    program     static E:\Proyectos\PIC\IR (Control infrarojo)\IR.X\RETARDOS_16MHZ.inc
         RETARDO_50MICROS   0x000024    program     static E:\Proyectos\PIC\IR (Control infrarojo)\IR.X\RETARDOS.inc
      RETARDO_50MICROS_16   0x000078    program     static E:\Proyectos\PIC\IR (Control infrarojo)\IR.X\RETARDOS_16MHZ.inc
    RETARDO_50MICROS_16_0   0x00007a    program     static E:\Proyectos\PIC\IR (Control infrarojo)\IR.X\RETARDOS_16MHZ.inc
             RETARDO_50MS   0x000030    program     static E:\Proyectos\PIC\IR (Control infrarojo)\IR.X\RETARDOS.inc
          RETARDO_5MICROS   0x00001a    program     static E:\Proyectos\PIC\IR (Control infrarojo)\IR.X\RETARDOS.inc
              RETARDO_5MS   0x000036    program     static E:\Proyectos\PIC\IR (Control infrarojo)\IR.X\RETARDOS.inc
           RETARDO_5MS_16   0x0000cb    program     static E:\Proyectos\PIC\IR (Control infrarojo)\IR.X\RETARDOS_16MHZ.inc
         RETARDO_5MS_16_0   0x0000cf    program     static E:\Proyectos\PIC\IR (Control infrarojo)\IR.X\RETARDOS_16MHZ.inc
               RETARDO_5S   0x000048    program     static E:\Proyectos\PIC\IR (Control infrarojo)\IR.X\RETARDOS.inc
            RMICROS_BUCLE   0x000029    program     static E:\Proyectos\PIC\IR (Control infrarojo)\IR.X\RETARDOS.inc
            Retardo_100ms   0x00009b    program     static E:\Proyectos\PIC\IR (Control infrarojo)\IR.X\RETARDOS_16MHZ.inc
          Retardo_100ms_0   0x0000a1    program     static E:\Proyectos\PIC\IR (Control infrarojo)\IR.X\RETARDOS_16MHZ.inc
             Retardo_10ms   0x0000c0    program     static E:\Proyectos\PIC\IR (Control infrarojo)\IR.X\RETARDOS_16MHZ.inc
           Retardo_10ms_0   0x0000c4    program     static E:\Proyectos\PIC\IR (Control infrarojo)\IR.X\RETARDOS_16MHZ.inc
              Retardo_10s   0x0000fa    program     static E:\Proyectos\PIC\IR (Control infrarojo)\IR.X\RETARDOS_16MHZ.inc
            Retardo_10s_0   0x000100    program     static E:\Proyectos\PIC\IR (Control infrarojo)\IR.X\RETARDOS_16MHZ.inc
              Retardo_1ms   0x0000e1    program     static E:\Proyectos\PIC\IR (Control infrarojo)\IR.X\RETARDOS_16MHZ.inc
            Retardo_1ms_0   0x0000e5    program     static E:\Proyectos\PIC\IR (Control infrarojo)\IR.X\RETARDOS_16MHZ.inc
               Retardo_1s   0x000128    program     static E:\Proyectos\PIC\IR (Control infrarojo)\IR.X\RETARDOS_16MHZ.inc
             Retardo_1s_0   0x00012e    program     static E:\Proyectos\PIC\IR (Control infrarojo)\IR.X\RETARDOS_16MHZ.inc
        Retardo_200micros   0x000067    program     static E:\Proyectos\PIC\IR (Control infrarojo)\IR.X\RETARDOS_16MHZ.inc
      Retardo_200micros_0   0x00006b    program     static E:\Proyectos\PIC\IR (Control infrarojo)\IR.X\RETARDOS_16MHZ.inc
            Retardo_200ms   0x00008c    program     static E:\Proyectos\PIC\IR (Control infrarojo)\IR.X\RETARDOS_16MHZ.inc
          Retardo_200ms_0   0x000092    program     static E:\Proyectos\PIC\IR (Control infrarojo)\IR.X\RETARDOS_16MHZ.inc
             Retardo_20ms   0x0000b5    program     static E:\Proyectos\PIC\IR (Control infrarojo)\IR.X\RETARDOS_16MHZ.inc
           Retardo_20ms_0   0x0000b9    program     static E:\Proyectos\PIC\IR (Control infrarojo)\IR.X\RETARDOS_16MHZ.inc
              Retardo_20s   0x0000ec    program     static E:\Proyectos\PIC\IR (Control infrarojo)\IR.X\RETARDOS_16MHZ.inc
            Retardo_20s_0   0x0000f2    program     static E:\Proyectos\PIC\IR (Control infrarojo)\IR.X\RETARDOS_16MHZ.inc
              Retardo_2ms   0x0000d6    program     static E:\Proyectos\PIC\IR (Control infrarojo)\IR.X\RETARDOS_16MHZ.inc
            Retardo_2ms_0   0x0000da    program     static E:\Proyectos\PIC\IR (Control infrarojo)\IR.X\RETARDOS_16MHZ.inc
              Retardo_30s   0x000143    program     static E:\Proyectos\PIC\IR (Control infrarojo)\IR.X\RETARDOS_16MHZ.inc
            Retardo_30s_0   0x00014b    program     static E:\Proyectos\PIC\IR (Control infrarojo)\IR.X\RETARDOS_16MHZ.inc
             Retardo_50ms   0x0000aa    program     static E:\Proyectos\PIC\IR (Control infrarojo)\IR.X\RETARDOS_16MHZ.inc
           Retardo_50ms_0   0x0000ae    program     static E:\Proyectos\PIC\IR (Control infrarojo)\IR.X\RETARDOS_16MHZ.inc
               Retardo_5s   0x000109    program     static E:\Proyectos\PIC\IR (Control infrarojo)\IR.X\RETARDOS_16MHZ.inc
             Retardo_5s_0   0x00010f    program     static E:\Proyectos\PIC\IR (Control infrarojo)\IR.X\RETARDOS_16MHZ.inc
              Retardo_60s   0x000155    program     static E:\Proyectos\PIC\IR (Control infrarojo)\IR.X\RETARDOS_16MHZ.inc
            Retardo_60s_0   0x00015d    program     static E:\Proyectos\PIC\IR (Control infrarojo)\IR.X\RETARDOS_16MHZ.inc
                   SEND_0   0x000227    program     static E:\Proyectos\PIC\IR (Control infrarojo)\IR.X\IR.inc
                   SEND_1   0x00021c    program     static E:\Proyectos\PIC\IR (Control infrarojo)\IR.X\IR.inc
                    SETUP   0x000000    program     static E:\Proyectos\PIC\IR (Control infrarojo)\IR.X\RECEPTOR_IR.asm
               SPACE_TIME   0x0001ec    program     static E:\Proyectos\PIC\IR (Control infrarojo)\IR.X\IR.inc
                    START   0x00000e    program     static E:\Proyectos\PIC\IR (Control infrarojo)\IR.X\RECEPTOR_IR.asm
             _.org_0_0061   0x000061    program     static E:\Proyectos\PIC\IR (Control infrarojo)\IR.X\RETARDOS_16MHZ.inc
             _.org_0_0064   0x000064    program     static E:\Proyectos\PIC\IR (Control infrarojo)\IR.X\RETARDOS_16MHZ.inc
             _.org_0_006C   0x00006c    program     static E:\Proyectos\PIC\IR (Control infrarojo)\IR.X\RETARDOS_16MHZ.inc
             _.org_0_006F   0x00006f    program     static E:\Proyectos\PIC\IR (Control infrarojo)\IR.X\RETARDOS_16MHZ.inc
             _.org_0_0076   0x000076    program     static E:\Proyectos\PIC\IR (Control infrarojo)\IR.X\RETARDOS_16MHZ.inc
             _.org_0_0093   0x000093    program     static E:\Proyectos\PIC\IR (Control infrarojo)\IR.X\RETARDOS_16MHZ.inc
             _.org_0_0095   0x000095    program     static E:\Proyectos\PIC\IR (Control infrarojo)\IR.X\RETARDOS_16MHZ.inc
             _.org_0_0098   0x000098    program     static E:\Proyectos\PIC\IR (Control infrarojo)\IR.X\RETARDOS_16MHZ.inc
             _.org_0_00A2   0x0000a2    program     static E:\Proyectos\PIC\IR (Control infrarojo)\IR.X\RETARDOS_16MHZ.inc
             _.org_0_00A4   0x0000a4    program     static E:\Proyectos\PIC\IR (Control infrarojo)\IR.X\RETARDOS_16MHZ.inc
             _.org_0_00A7   0x0000a7    program     static E:\Proyectos\PIC\IR (Control infrarojo)\IR.X\RETARDOS_16MHZ.inc
             _.org_0_00A8   0x0000a8    program     static E:\Proyectos\PIC\IR (Control infrarojo)\IR.X\RETARDOS_16MHZ.inc
             _.org_0_00AF   0x0000af    program     static E:\Proyectos\PIC\IR (Control infrarojo)\IR.X\RETARDOS_16MHZ.inc
             _.org_0_00B2   0x0000b2    program     static E:\Proyectos\PIC\IR (Control infrarojo)\IR.X\RETARDOS_16MHZ.inc
             _.org_0_00BA   0x0000ba    program     static E:\Proyectos\PIC\IR (Control infrarojo)\IR.X\RETARDOS_16MHZ.inc
             _.org_0_00BD   0x0000bd    program     static E:\Proyectos\PIC\IR (Control infrarojo)\IR.X\RETARDOS_16MHZ.inc
             _.org_0_00C5   0x0000c5    program     static E:\Proyectos\PIC\IR (Control infrarojo)\IR.X\RETARDOS_16MHZ.inc
             _.org_0_00C8   0x0000c8    program     static E:\Proyectos\PIC\IR (Control infrarojo)\IR.X\RETARDOS_16MHZ.inc
             _.org_0_00D0   0x0000d0    program     static E:\Proyectos\PIC\IR (Control infrarojo)\IR.X\RETARDOS_16MHZ.inc
             _.org_0_00D3   0x0000d3    program     static E:\Proyectos\PIC\IR (Control infrarojo)\IR.X\RETARDOS_16MHZ.inc
             _.org_0_00DB   0x0000db    program     static E:\Proyectos\PIC\IR (Control infrarojo)\IR.X\RETARDOS_16MHZ.inc
             _.org_0_00DE   0x0000de    program     static E:\Proyectos\PIC\IR (Control infrarojo)\IR.X\RETARDOS_16MHZ.inc
             _.org_0_00E6   0x0000e6    program     static E:\Proyectos\PIC\IR (Control infrarojo)\IR.X\RETARDOS_16MHZ.inc
             _.org_0_00E9   0x0000e9    program     static E:\Proyectos\PIC\IR (Control infrarojo)\IR.X\RETARDOS_16MHZ.inc
             _.org_0_00F3   0x0000f3    program     static E:\Proyectos\PIC\IR (Control infrarojo)\IR.X\RETARDOS_16MHZ.inc
             _.org_0_00F5   0x0000f5    program     static E:\Proyectos\PIC\IR (Control infrarojo)\IR.X\RETARDOS_16MHZ.inc
             _.org_0_0101   0x000101    program     static E:\Proyectos\PIC\IR (Control infrarojo)\IR.X\RETARDOS_16MHZ.inc
             _.org_0_0103   0x000103    program     static E:\Proyectos\PIC\IR (Control infrarojo)\IR.X\RETARDOS_16MHZ.inc
             _.org_0_0106   0x000106    program     static E:\Proyectos\PIC\IR (Control infrarojo)\IR.X\RETARDOS_16MHZ.inc
             _.org_0_0110   0x000110    program     static E:\Proyectos\PIC\IR (Control infrarojo)\IR.X\RETARDOS_16MHZ.inc
             _.org_0_0112   0x000112    program     static E:\Proyectos\PIC\IR (Control infrarojo)\IR.X\RETARDOS_16MHZ.inc
             _.org_0_0115   0x000115    program     static E:\Proyectos\PIC\IR (Control infrarojo)\IR.X\RETARDOS_16MHZ.inc
             _.org_0_0116   0x000116    program     static E:\Proyectos\PIC\IR (Control infrarojo)\IR.X\RETARDOS_16MHZ.inc
             _.org_0_011F   0x00011f    program     static E:\Proyectos\PIC\IR (Control infrarojo)\IR.X\RETARDOS_16MHZ.inc
             _.org_0_0121   0x000121    program     static E:\Proyectos\PIC\IR (Control infrarojo)\IR.X\RETARDOS_16MHZ.inc
             _.org_0_0124   0x000124    program     static E:\Proyectos\PIC\IR (Control infrarojo)\IR.X\RETARDOS_16MHZ.inc
             _.org_0_0125   0x000125    program     static E:\Proyectos\PIC\IR (Control infrarojo)\IR.X\RETARDOS_16MHZ.inc
             _.org_0_0126   0x000126    program     static E:\Proyectos\PIC\IR (Control infrarojo)\IR.X\RETARDOS_16MHZ.inc
             _.org_0_012F   0x00012f    program     static E:\Proyectos\PIC\IR (Control infrarojo)\IR.X\RETARDOS_16MHZ.inc
             _.org_0_0131   0x000131    program     static E:\Proyectos\PIC\IR (Control infrarojo)\IR.X\RETARDOS_16MHZ.inc
             _.org_0_0134   0x000134    program     static E:\Proyectos\PIC\IR (Control infrarojo)\IR.X\RETARDOS_16MHZ.inc
             _.org_0_013D   0x00013d    program     static E:\Proyectos\PIC\IR (Control infrarojo)\IR.X\RETARDOS_16MHZ.inc
             _.org_0_013F   0x00013f    program     static E:\Proyectos\PIC\IR (Control infrarojo)\IR.X\RETARDOS_16MHZ.inc
             _.org_0_014C   0x00014c    program     static E:\Proyectos\PIC\IR (Control infrarojo)\IR.X\RETARDOS_16MHZ.inc
             _.org_0_014E   0x00014e    program     static E:\Proyectos\PIC\IR (Control infrarojo)\IR.X\RETARDOS_16MHZ.inc
             _.org_0_0150   0x000150    program     static E:\Proyectos\PIC\IR (Control infrarojo)\IR.X\RETARDOS_16MHZ.inc
             _.org_0_015E   0x00015e    program     static E:\Proyectos\PIC\IR (Control infrarojo)\IR.X\RETARDOS_16MHZ.inc
             _.org_0_0160   0x000160    program     static E:\Proyectos\PIC\IR (Control infrarojo)\IR.X\RETARDOS_16MHZ.inc
             _.org_0_0162   0x000162    program     static E:\Proyectos\PIC\IR (Control infrarojo)\IR.X\RETARDOS_16MHZ.inc
             _.org_0_0165   0x000165    program     static E:\Proyectos\PIC\IR (Control infrarojo)\IR.X\RETARDOS_16MHZ.inc
             _.org_0_0166   0x000166    program     static E:\Proyectos\PIC\IR (Control infrarojo)\IR.X\RETARDOS_16MHZ.inc



                              Symbols - Sorted by Address
                     Name    Address   Location    Storage File                     
                ---------  ---------  ---------  --------- ---------                
                    SETUP   0x000000    program     static E:\Proyectos\PIC\IR (Control infrarojo)\IR.X\RECEPTOR_IR.asm
                    START   0x00000e    program     static E:\Proyectos\PIC\IR (Control infrarojo)\IR.X\RECEPTOR_IR.asm
         RETARDO_12MICROS   0x000013    program     static E:\Proyectos\PIC\IR (Control infrarojo)\IR.X\RETARDOS.inc
         RETARDO_10MICROS   0x000015    program     static E:\Proyectos\PIC\IR (Control infrarojo)\IR.X\RETARDOS.inc
          RETARDO_5MICROS   0x00001a    program     static E:\Proyectos\PIC\IR (Control infrarojo)\IR.X\RETARDOS.inc
          RETARDO_4MICROS   0x00001b    program     static E:\Proyectos\PIC\IR (Control infrarojo)\IR.X\RETARDOS.inc
        RETARDO_500MICROS   0x00001c    program     static E:\Proyectos\PIC\IR (Control infrarojo)\IR.X\RETARDOS.inc
        RETARDO_200MICROS   0x00001f    program     static E:\Proyectos\PIC\IR (Control infrarojo)\IR.X\RETARDOS.inc
        RETARDO_100MICROS   0x000022    program     static E:\Proyectos\PIC\IR (Control infrarojo)\IR.X\RETARDOS.inc
         RETARDO_50MICROS   0x000024    program     static E:\Proyectos\PIC\IR (Control infrarojo)\IR.X\RETARDOS.inc
         RETARDO_20MICROS   0x000027    program     static E:\Proyectos\PIC\IR (Control infrarojo)\IR.X\RETARDOS.inc
            RETARDOMICROS   0x000028    program     static E:\Proyectos\PIC\IR (Control infrarojo)\IR.X\RETARDOS.inc
            RMICROS_BUCLE   0x000029    program     static E:\Proyectos\PIC\IR (Control infrarojo)\IR.X\RETARDOS.inc
            RETARDO_200MS   0x00002c    program     static E:\Proyectos\PIC\IR (Control infrarojo)\IR.X\RETARDOS.inc
            RETARDO_100MS   0x00002e    program     static E:\Proyectos\PIC\IR (Control infrarojo)\IR.X\RETARDOS.inc
             RETARDO_50MS   0x000030    program     static E:\Proyectos\PIC\IR (Control infrarojo)\IR.X\RETARDOS.inc
             RETARDO_20MS   0x000032    program     static E:\Proyectos\PIC\IR (Control infrarojo)\IR.X\RETARDOS.inc
             RETARDO_10MS   0x000034    program     static E:\Proyectos\PIC\IR (Control infrarojo)\IR.X\RETARDOS.inc
              RETARDO_5MS   0x000036    program     static E:\Proyectos\PIC\IR (Control infrarojo)\IR.X\RETARDOS.inc
              RETARDO_2MS   0x000038    program     static E:\Proyectos\PIC\IR (Control infrarojo)\IR.X\RETARDOS.inc
              RETARDO_1MS   0x00003a    program     static E:\Proyectos\PIC\IR (Control infrarojo)\IR.X\RETARDOS.inc
              RETARDOS_MS   0x00003b    program     static E:\Proyectos\PIC\IR (Control infrarojo)\IR.X\RETARDOS.inc
        R1MS_BUCLEEXTERNO   0x00003c    program     static E:\Proyectos\PIC\IR (Control infrarojo)\IR.X\RETARDOS.inc
        R1MS_BUCLEINTERNO   0x00003e    program     static E:\Proyectos\PIC\IR (Control infrarojo)\IR.X\RETARDOS.inc
              RETARDO_20S   0x000044    program     static E:\Proyectos\PIC\IR (Control infrarojo)\IR.X\RETARDOS.inc
              RETARDO_10S   0x000046    program     static E:\Proyectos\PIC\IR (Control infrarojo)\IR.X\RETARDOS.inc
               RETARDO_5S   0x000048    program     static E:\Proyectos\PIC\IR (Control infrarojo)\IR.X\RETARDOS.inc
               RETARDO_2S   0x00004a    program     static E:\Proyectos\PIC\IR (Control infrarojo)\IR.X\RETARDOS.inc
               RETARDO_1S   0x00004c    program     static E:\Proyectos\PIC\IR (Control infrarojo)\IR.X\RETARDOS.inc
            RETARDO_500MS   0x00004e    program     static E:\Proyectos\PIC\IR (Control infrarojo)\IR.X\RETARDOS.inc
          RETARDO_1DECIMA   0x00004f    program     static E:\Proyectos\PIC\IR (Control infrarojo)\IR.X\RETARDOS.inc
   R1DECIMA_BUCLEEXTERNO2   0x000050    program     static E:\Proyectos\PIC\IR (Control infrarojo)\IR.X\RETARDOS.inc
    R1DECIMA_BUCLEEXTERNO   0x000052    program     static E:\Proyectos\PIC\IR (Control infrarojo)\IR.X\RETARDOS.inc
    R1DECIMA_BUCLEINTERNO   0x000054    program     static E:\Proyectos\PIC\IR (Control infrarojo)\IR.X\RETARDOS.inc
     RETARDO_500MICROS_16   0x00005c    program     static E:\Proyectos\PIC\IR (Control infrarojo)\IR.X\RETARDOS_16MHZ.inc
   RETARDO_500MICROS_16_0   0x000060    program     static E:\Proyectos\PIC\IR (Control infrarojo)\IR.X\RETARDOS_16MHZ.inc
             _.org_0_0061   0x000061    program     static E:\Proyectos\PIC\IR (Control infrarojo)\IR.X\RETARDOS_16MHZ.inc
             _.org_0_0064   0x000064    program     static E:\Proyectos\PIC\IR (Control infrarojo)\IR.X\RETARDOS_16MHZ.inc
        Retardo_200micros   0x000067    program     static E:\Proyectos\PIC\IR (Control infrarojo)\IR.X\RETARDOS_16MHZ.inc
      Retardo_200micros_0   0x00006b    program     static E:\Proyectos\PIC\IR (Control infrarojo)\IR.X\RETARDOS_16MHZ.inc
             _.org_0_006C   0x00006c    program     static E:\Proyectos\PIC\IR (Control infrarojo)\IR.X\RETARDOS_16MHZ.inc
             _.org_0_006F   0x00006f    program     static E:\Proyectos\PIC\IR (Control infrarojo)\IR.X\RETARDOS_16MHZ.inc
     RETARDO_100MICROS_16   0x000072    program     static E:\Proyectos\PIC\IR (Control infrarojo)\IR.X\RETARDOS_16MHZ.inc
   RETARDO_100MICROS_16_0   0x000074    program     static E:\Proyectos\PIC\IR (Control infrarojo)\IR.X\RETARDOS_16MHZ.inc
             _.org_0_0076   0x000076    program     static E:\Proyectos\PIC\IR (Control infrarojo)\IR.X\RETARDOS_16MHZ.inc
      RETARDO_50MICROS_16   0x000078    program     static E:\Proyectos\PIC\IR (Control infrarojo)\IR.X\RETARDOS_16MHZ.inc
    RETARDO_50MICROS_16_0   0x00007a    program     static E:\Proyectos\PIC\IR (Control infrarojo)\IR.X\RETARDOS_16MHZ.inc
      RETARDO_20MICROS_16   0x00007d    program     static E:\Proyectos\PIC\IR (Control infrarojo)\IR.X\RETARDOS_16MHZ.inc
    RETARDO_20MICROS_16_0   0x00007f    program     static E:\Proyectos\PIC\IR (Control infrarojo)\IR.X\RETARDOS_16MHZ.inc
      RETARDO_13MICROS_16   0x000082    program     static E:\Proyectos\PIC\IR (Control infrarojo)\IR.X\RETARDOS_16MHZ.inc
    RETARDO_13MICROS_16_0   0x000084    program     static E:\Proyectos\PIC\IR (Control infrarojo)\IR.X\RETARDOS_16MHZ.inc
      RETARDO_10MICROS_16   0x000087    program     static E:\Proyectos\PIC\IR (Control infrarojo)\IR.X\RETARDOS_16MHZ.inc
    RETARDO_10MICROS_16_0   0x000089    program     static E:\Proyectos\PIC\IR (Control infrarojo)\IR.X\RETARDOS_16MHZ.inc
            Retardo_200ms   0x00008c    program     static E:\Proyectos\PIC\IR (Control infrarojo)\IR.X\RETARDOS_16MHZ.inc
          Retardo_200ms_0   0x000092    program     static E:\Proyectos\PIC\IR (Control infrarojo)\IR.X\RETARDOS_16MHZ.inc
             _.org_0_0093   0x000093    program     static E:\Proyectos\PIC\IR (Control infrarojo)\IR.X\RETARDOS_16MHZ.inc
             _.org_0_0095   0x000095    program     static E:\Proyectos\PIC\IR (Control infrarojo)\IR.X\RETARDOS_16MHZ.inc
             _.org_0_0098   0x000098    program     static E:\Proyectos\PIC\IR (Control infrarojo)\IR.X\RETARDOS_16MHZ.inc
            Retardo_100ms   0x00009b    program     static E:\Proyectos\PIC\IR (Control infrarojo)\IR.X\RETARDOS_16MHZ.inc
          Retardo_100ms_0   0x0000a1    program     static E:\Proyectos\PIC\IR (Control infrarojo)\IR.X\RETARDOS_16MHZ.inc
             _.org_0_00A2   0x0000a2    program     static E:\Proyectos\PIC\IR (Control infrarojo)\IR.X\RETARDOS_16MHZ.inc
             _.org_0_00A4   0x0000a4    program     static E:\Proyectos\PIC\IR (Control infrarojo)\IR.X\RETARDOS_16MHZ.inc
             _.org_0_00A7   0x0000a7    program     static E:\Proyectos\PIC\IR (Control infrarojo)\IR.X\RETARDOS_16MHZ.inc
             _.org_0_00A8   0x0000a8    program     static E:\Proyectos\PIC\IR (Control infrarojo)\IR.X\RETARDOS_16MHZ.inc
             Retardo_50ms   0x0000aa    program     static E:\Proyectos\PIC\IR (Control infrarojo)\IR.X\RETARDOS_16MHZ.inc
           Retardo_50ms_0   0x0000ae    program     static E:\Proyectos\PIC\IR (Control infrarojo)\IR.X\RETARDOS_16MHZ.inc
             _.org_0_00AF   0x0000af    program     static E:\Proyectos\PIC\IR (Control infrarojo)\IR.X\RETARDOS_16MHZ.inc
             _.org_0_00B2   0x0000b2    program     static E:\Proyectos\PIC\IR (Control infrarojo)\IR.X\RETARDOS_16MHZ.inc
             Retardo_20ms   0x0000b5    program     static E:\Proyectos\PIC\IR (Control infrarojo)\IR.X\RETARDOS_16MHZ.inc
           Retardo_20ms_0   0x0000b9    program     static E:\Proyectos\PIC\IR (Control infrarojo)\IR.X\RETARDOS_16MHZ.inc
             _.org_0_00BA   0x0000ba    program     static E:\Proyectos\PIC\IR (Control infrarojo)\IR.X\RETARDOS_16MHZ.inc
             _.org_0_00BD   0x0000bd    program     static E:\Proyectos\PIC\IR (Control infrarojo)\IR.X\RETARDOS_16MHZ.inc
             Retardo_10ms   0x0000c0    program     static E:\Proyectos\PIC\IR (Control infrarojo)\IR.X\RETARDOS_16MHZ.inc
           Retardo_10ms_0   0x0000c4    program     static E:\Proyectos\PIC\IR (Control infrarojo)\IR.X\RETARDOS_16MHZ.inc
             _.org_0_00C5   0x0000c5    program     static E:\Proyectos\PIC\IR (Control infrarojo)\IR.X\RETARDOS_16MHZ.inc
             _.org_0_00C8   0x0000c8    program     static E:\Proyectos\PIC\IR (Control infrarojo)\IR.X\RETARDOS_16MHZ.inc
           RETARDO_5MS_16   0x0000cb    program     static E:\Proyectos\PIC\IR (Control infrarojo)\IR.X\RETARDOS_16MHZ.inc
         RETARDO_5MS_16_0   0x0000cf    program     static E:\Proyectos\PIC\IR (Control infrarojo)\IR.X\RETARDOS_16MHZ.inc
             _.org_0_00D0   0x0000d0    program     static E:\Proyectos\PIC\IR (Control infrarojo)\IR.X\RETARDOS_16MHZ.inc
             _.org_0_00D3   0x0000d3    program     static E:\Proyectos\PIC\IR (Control infrarojo)\IR.X\RETARDOS_16MHZ.inc
              Retardo_2ms   0x0000d6    program     static E:\Proyectos\PIC\IR (Control infrarojo)\IR.X\RETARDOS_16MHZ.inc
            Retardo_2ms_0   0x0000da    program     static E:\Proyectos\PIC\IR (Control infrarojo)\IR.X\RETARDOS_16MHZ.inc
             _.org_0_00DB   0x0000db    program     static E:\Proyectos\PIC\IR (Control infrarojo)\IR.X\RETARDOS_16MHZ.inc
             _.org_0_00DE   0x0000de    program     static E:\Proyectos\PIC\IR (Control infrarojo)\IR.X\RETARDOS_16MHZ.inc
              Retardo_1ms   0x0000e1    program     static E:\Proyectos\PIC\IR (Control infrarojo)\IR.X\RETARDOS_16MHZ.inc
            Retardo_1ms_0   0x0000e5    program     static E:\Proyectos\PIC\IR (Control infrarojo)\IR.X\RETARDOS_16MHZ.inc
             _.org_0_00E6   0x0000e6    program     static E:\Proyectos\PIC\IR (Control infrarojo)\IR.X\RETARDOS_16MHZ.inc
             _.org_0_00E9   0x0000e9    program     static E:\Proyectos\PIC\IR (Control infrarojo)\IR.X\RETARDOS_16MHZ.inc
              Retardo_20s   0x0000ec    program     static E:\Proyectos\PIC\IR (Control infrarojo)\IR.X\RETARDOS_16MHZ.inc
            Retardo_20s_0   0x0000f2    program     static E:\Proyectos\PIC\IR (Control infrarojo)\IR.X\RETARDOS_16MHZ.inc
             _.org_0_00F3   0x0000f3    program     static E:\Proyectos\PIC\IR (Control infrarojo)\IR.X\RETARDOS_16MHZ.inc
             _.org_0_00F5   0x0000f5    program     static E:\Proyectos\PIC\IR (Control infrarojo)\IR.X\RETARDOS_16MHZ.inc
              Retardo_10s   0x0000fa    program     static E:\Proyectos\PIC\IR (Control infrarojo)\IR.X\RETARDOS_16MHZ.inc
            Retardo_10s_0   0x000100    program     static E:\Proyectos\PIC\IR (Control infrarojo)\IR.X\RETARDOS_16MHZ.inc
             _.org_0_0101   0x000101    program     static E:\Proyectos\PIC\IR (Control infrarojo)\IR.X\RETARDOS_16MHZ.inc
             _.org_0_0103   0x000103    program     static E:\Proyectos\PIC\IR (Control infrarojo)\IR.X\RETARDOS_16MHZ.inc
             _.org_0_0106   0x000106    program     static E:\Proyectos\PIC\IR (Control infrarojo)\IR.X\RETARDOS_16MHZ.inc
               Retardo_5s   0x000109    program     static E:\Proyectos\PIC\IR (Control infrarojo)\IR.X\RETARDOS_16MHZ.inc
             Retardo_5s_0   0x00010f    program     static E:\Proyectos\PIC\IR (Control infrarojo)\IR.X\RETARDOS_16MHZ.inc
             _.org_0_0110   0x000110    program     static E:\Proyectos\PIC\IR (Control infrarojo)\IR.X\RETARDOS_16MHZ.inc
             _.org_0_0112   0x000112    program     static E:\Proyectos\PIC\IR (Control infrarojo)\IR.X\RETARDOS_16MHZ.inc
             _.org_0_0115   0x000115    program     static E:\Proyectos\PIC\IR (Control infrarojo)\IR.X\RETARDOS_16MHZ.inc
             _.org_0_0116   0x000116    program     static E:\Proyectos\PIC\IR (Control infrarojo)\IR.X\RETARDOS_16MHZ.inc
            RETARDO_2S_16   0x000118    program     static E:\Proyectos\PIC\IR (Control infrarojo)\IR.X\RETARDOS_16MHZ.inc
          RETARDO_2S_16_0   0x00011e    program     static E:\Proyectos\PIC\IR (Control infrarojo)\IR.X\RETARDOS_16MHZ.inc
             _.org_0_011F   0x00011f    program     static E:\Proyectos\PIC\IR (Control infrarojo)\IR.X\RETARDOS_16MHZ.inc
             _.org_0_0121   0x000121    program     static E:\Proyectos\PIC\IR (Control infrarojo)\IR.X\RETARDOS_16MHZ.inc
             _.org_0_0124   0x000124    program     static E:\Proyectos\PIC\IR (Control infrarojo)\IR.X\RETARDOS_16MHZ.inc
             _.org_0_0125   0x000125    program     static E:\Proyectos\PIC\IR (Control infrarojo)\IR.X\RETARDOS_16MHZ.inc
             _.org_0_0126   0x000126    program     static E:\Proyectos\PIC\IR (Control infrarojo)\IR.X\RETARDOS_16MHZ.inc
               Retardo_1s   0x000128    program     static E:\Proyectos\PIC\IR (Control infrarojo)\IR.X\RETARDOS_16MHZ.inc
             Retardo_1s_0   0x00012e    program     static E:\Proyectos\PIC\IR (Control infrarojo)\IR.X\RETARDOS_16MHZ.inc
             _.org_0_012F   0x00012f    program     static E:\Proyectos\PIC\IR (Control infrarojo)\IR.X\RETARDOS_16MHZ.inc
             _.org_0_0131   0x000131    program     static E:\Proyectos\PIC\IR (Control infrarojo)\IR.X\RETARDOS_16MHZ.inc
             _.org_0_0134   0x000134    program     static E:\Proyectos\PIC\IR (Control infrarojo)\IR.X\RETARDOS_16MHZ.inc
         RETARDO_500MS_16   0x000136    program     static E:\Proyectos\PIC\IR (Control infrarojo)\IR.X\RETARDOS_16MHZ.inc
       RETARDO_500MS_16_0   0x00013c    program     static E:\Proyectos\PIC\IR (Control infrarojo)\IR.X\RETARDOS_16MHZ.inc
             _.org_0_013D   0x00013d    program     static E:\Proyectos\PIC\IR (Control infrarojo)\IR.X\RETARDOS_16MHZ.inc
             _.org_0_013F   0x00013f    program     static E:\Proyectos\PIC\IR (Control infrarojo)\IR.X\RETARDOS_16MHZ.inc
              Retardo_30s   0x000143    program     static E:\Proyectos\PIC\IR (Control infrarojo)\IR.X\RETARDOS_16MHZ.inc
            Retardo_30s_0   0x00014b    program     static E:\Proyectos\PIC\IR (Control infrarojo)\IR.X\RETARDOS_16MHZ.inc
             _.org_0_014C   0x00014c    program     static E:\Proyectos\PIC\IR (Control infrarojo)\IR.X\RETARDOS_16MHZ.inc
             _.org_0_014E   0x00014e    program     static E:\Proyectos\PIC\IR (Control infrarojo)\IR.X\RETARDOS_16MHZ.inc
             _.org_0_0150   0x000150    program     static E:\Proyectos\PIC\IR (Control infrarojo)\IR.X\RETARDOS_16MHZ.inc
              Retardo_60s   0x000155    program     static E:\Proyectos\PIC\IR (Control infrarojo)\IR.X\RETARDOS_16MHZ.inc
            Retardo_60s_0   0x00015d    program     static E:\Proyectos\PIC\IR (Control infrarojo)\IR.X\RETARDOS_16MHZ.inc
             _.org_0_015E   0x00015e    program     static E:\Proyectos\PIC\IR (Control infrarojo)\IR.X\RETARDOS_16MHZ.inc
             _.org_0_0160   0x000160    program     static E:\Proyectos\PIC\IR (Control infrarojo)\IR.X\RETARDOS_16MHZ.inc
             _.org_0_0162   0x000162    program     static E:\Proyectos\PIC\IR (Control infrarojo)\IR.X\RETARDOS_16MHZ.inc
             _.org_0_0165   0x000165    program     static E:\Proyectos\PIC\IR (Control infrarojo)\IR.X\RETARDOS_16MHZ.inc
             _.org_0_0166   0x000166    program     static E:\Proyectos\PIC\IR (Control infrarojo)\IR.X\RETARDOS_16MHZ.inc
         ESCRIBIR_COMANDO   0x000168    program     static E:\Proyectos\PIC\IR (Control infrarojo)\IR.X\LCD.inc
        COMPROBAR_OCUPADO   0x00017b    program     static E:\Proyectos\PIC\IR (Control infrarojo)\IR.X\LCD.inc
        ESCRIBIR_CARACTER   0x00019b    program     static E:\Proyectos\PIC\IR (Control infrarojo)\IR.X\LCD.inc
INICIALIZACION_DE_PANTALLA   0x0001b2    program     static E:\Proyectos\PIC\IR (Control infrarojo)\IR.X\LCD.inc
                 IR_FLAGS   0x0001e9    program     static E:\Proyectos\PIC\IR (Control infrarojo)\IR.X\IR.inc
                CURR_TIME   0x0001ea    program     static E:\Proyectos\PIC\IR (Control infrarojo)\IR.X\IR.inc
               PULSE_TIME   0x0001eb    program     static E:\Proyectos\PIC\IR (Control infrarojo)\IR.X\IR.inc
               SPACE_TIME   0x0001ec    program     static E:\Proyectos\PIC\IR (Control infrarojo)\IR.X\IR.inc
                REC_BYTE1   0x0001ed    program     static E:\Proyectos\PIC\IR (Control infrarojo)\IR.X\IR.inc
                REC_BYTE2   0x0001ee    program     static E:\Proyectos\PIC\IR (Control infrarojo)\IR.X\IR.inc
                  COUNTER   0x0001ef    program     static E:\Proyectos\PIC\IR (Control infrarojo)\IR.X\IR.inc
               CONTADOR_2   0x0001f0    program     static E:\Proyectos\PIC\IR (Control infrarojo)\IR.X\IR.inc
                  BITS_IR   0x0001f1    program     static E:\Proyectos\PIC\IR (Control infrarojo)\IR.X\IR.inc
                  IRsetup   0x0001f2    program     static E:\Proyectos\PIC\IR (Control infrarojo)\IR.X\IR.inc
                IRcarrier   0x0001f8    program     static E:\Proyectos\PIC\IR (Control infrarojo)\IR.X\IR.inc
                    BUCLE   0x0001fb    program     static E:\Proyectos\PIC\IR (Control infrarojo)\IR.X\IR.inc
  RETARDO_13MICROS_16_0_1   0x000204    program     static E:\Proyectos\PIC\IR (Control infrarojo)\IR.X\IR.inc
  RETARDO_13MICROS_16_0_2   0x000209    program     static E:\Proyectos\PIC\IR (Control infrarojo)\IR.X\IR.inc
                    FINAL   0x00020c    program     static E:\Proyectos\PIC\IR (Control infrarojo)\IR.X\IR.inc
                   IRsend   0x00020e    program     static E:\Proyectos\PIC\IR (Control infrarojo)\IR.X\IR.inc
               BUCLE_SEND   0x000210    program     static E:\Proyectos\PIC\IR (Control infrarojo)\IR.X\IR.inc
                   SEND_1   0x00021c    program     static E:\Proyectos\PIC\IR (Control infrarojo)\IR.X\IR.inc
                   SEND_0   0x000227    program     static E:\Proyectos\PIC\IR (Control infrarojo)\IR.X\IR.inc
               FINAL_SEND   0x00022d    program     static E:\Proyectos\PIC\IR (Control infrarojo)\IR.X\IR.inc


