MPASM 5.86                   RECEPTOR_IR.ASM   8-21-2020  2:13:17         PAGE  1


LOC  OBJECT CODE     LINE SOURCE TEXT
  VALUE

                      00001 #INCLUDE <P16F887.INC>
                      00001         LIST
                      00002 
                      00003 ;==========================================================================
                      00004 ; Build date : Oct 24 2019
                      00005 ;  MPASM PIC16F887 processor include
                      00006 ; 
                      00007 ;  (c) Copyright 1999-2019 Microchip Technology, All rights reserved
                      00008 ;==========================================================================
                      00009 
                      00810         LIST
                      00002  LIST P=16F887
                      00003 ; CONFIG1
                      00004 ; __config 0xFFE1
2007   3FE2           00005  __CONFIG _CONFIG1, _FOSC_HS & _WDTE_OFF & _PWRTE_ON & _MCLRE_ON & _CP_OFF & _CPD_OFF & _BOREN_ON & _IES
                            O_ON & _FCMEN_ON & _LVP_ON
                      00006 ; CONFIG2
                      00007 ; __config 0xFFFF
2008   3FFF           00008  __CONFIG _CONFIG2, _BOR4V_BOR40V & _WRT_OFF
                      00009  
Message[313]: CBLOCK constants will start with a value of 0.
                      00010  CBLOCK 
                      00011  ENDC
                      00012  ORG 0
Warning[207]: Found label after column 1. (SETUP)
0000                  00013  SETUP:
0000   2???           00014     CALL RETARDO_2S_16
0001   2???           00015     CALL IRsetup
0002   30FF           00016     MOVLW D'255'
0003   2???           00017     CALL IRcarrier
0004   305B           00018     MOVLW D'91' ;9ms de carrier
0005   2???           00019     CALL IRcarrier
0006   30FF           00020     MOVLW 0xFF
0007   00BA           00021     MOVWF BYTES
0008   30A2           00022     MOVLW 0xA2
0009   00BB           00023     MOVWF BYTES+1
000A   305D           00024     MOVLW 0x5D
000B   303C           00025     MOVLW BYTES+2
                      00026     
Warning[207]: Found label after column 1. (START)
000C                  00027  START:
000C   2???           00028     CALL RETARDO_500MS_16
000D   1408           00029     BSF PORTD, 0
000E   2???           00030     CALL RETARDO_500MS_16
000F   1008           00031     BCF PORTD, 0
0010   2???           00032     GOTO START
                      00033     #INCLUDE <RETARDOS.inc>
                      00001 ;**************************** Librería "RETARDOS.INC" *********************************
                      00002 ;       ===================================================================
                      00003 ;         Del libro "MICROCONTROLADOR PIC16F84. DESARROLLO DE PROYECTOS"
                      00004 ;         E. Palacios, F. Remiro y L. López.
                      00005 ;         Editorial Ra-Ma.  www.ra-ma.es
                      00006 ;       ===================================================================
MPASM 5.86                   RECEPTOR_IR.ASM   8-21-2020  2:13:17         PAGE  2


LOC  OBJECT CODE     LINE SOURCE TEXT
  VALUE

                      00007 ;
                      00008 ; Librería con múltiples subrutinas de retardos, desde 4 microsegundos hasta 20 segundos. 
                      00009 ; Además se pueden implementar otras subrutinas muy fácilmente.
                      00010 ;
                      00011 ; Se han calculado para un sistema microcontrolador con un PIC trabajando con un cristal
                      00012 ; de cuarzo a 4 MHz. Como cada ciclo máquina son 4 ciclos de reloj, resulta que cada
                      00013 ; ciclo máquina tarda 4 x 1/4MHz = 1 µs.
                      00014 ; En los comentarios, "cm" significa "ciclos máquina".
                      00015 ; ZONA DE DATOS *********************************************************************
                      00016     CBLOCK
  00000000            00017     R_CONTA                             ; Contadores para los retardos.
  00000001            00018     R_CONTB
  00000002            00019     R_CONTC
                      00020     ENDC
                      00021 ; RETARDOS de 4 hasta 10 microsegundos ---------------------------------------------------
                      00022 ; A continuación retardos pequeños teniendo en cuenta que para una frecuencia de 4 MHZ,
                      00023 ; la llamada a subrutina "call" tarda 2 ciclos máquina, el retorno de subrutina
                      00024 ; "return" toma otros 2 ciclos máquina y cada instrucción "nop" tarda 1 ciclo máquina.
0011                  00025 RETARDO_12MICROS:
0011   0000           00026     NOP
0012   0000           00027     NOP
0013                  00028 RETARDO_10MICROS:                               ; La llamada "call" aporta 2 ciclos máquina.
0013   0000           00029     NOP                         ; Aporta 1 ciclo máquina.
0014   0000           00030     NOP                         ; Aporta 1 ciclo máquina.
0015   0000           00031     NOP                         ; Aporta 1 ciclo máquina.
0016   0000           00032     NOP                         ; Aporta 1 ciclo máquina.
0017   0000           00033     NOP                         ; Aporta 1 ciclo máquina.
0018                  00034 RETARDO_5MICROS:                ; La llamada "call" aporta 2 ciclos máquina.
0018   0000           00035     NOP                         ; Aporta 1 ciclo máquina.
0019                  00036 RETARDO_4MICROS:                ; La llamada "call" aporta 2 ciclos máquina.
0019   0008           00037     RETURN                              ; El salto del retorno aporta 2 ciclos máquina.
                      00038 ; RETARDOS de 20 hasta 500 microsegundos ------------------------------------------------
001A                  00039 RETARDO_500MICROS:                      ; La llamada "call" aporta 2 ciclos máquina.
001A   0000           00040     NOP                                 ; Aporta 1 ciclo máquina.
001B   30A4           00041     MOVLW       D'164'                  ; Aporta 1 ciclo máquina. Este es el valor de "K".
001C   2???           00042     GOTO        RETARDOMICROS           ; Aporta 2 ciclos máquina.
001D                  00043 RETARDO_200MICROS:                      ; La llamada "call" aporta 2 ciclos máquina.
001D   0000           00044     NOP                                 ; Aporta 1 ciclo máquina.
001E   3040           00045     MOVLW       D'64'                   ; Aporta 1 ciclo máquina. Este es el valor de "K".
001F   2???           00046     GOTO        RETARDOMICROS           ; Aporta 2 ciclos máquina.
0020                  00047 RETARDO_100MICROS:                      ; La llamada "call" aporta 2 ciclos máquina.
0020   301F           00048     MOVLW       D'31'                   ; Aporta 1 ciclo máquina. Este es el valor de "K".
0021   2???           00049     GOTO        RETARDOMICROS           ; Aporta 2 ciclos máquina.
0022                  00050 RETARDO_50MICROS:                       ; La llamada "call" aporta 2 ciclos máquina.
0022   0000           00051     NOP                                 ; Aporta 1 ciclo máquina.
0023   300E           00052     MOVLW       D'14'                   ; Aporta 1 ciclo máquina. Este es el valor de "K".
0024   2???           00053     GOTO        RETARDOMICROS           ; Aporta 2 ciclos máquina.
0025                  00054 RETARDO_20MICROS:                               ; La llamada "call" aporta 2 ciclos máquina.
0025   3005           00055     MOVLW       D'5'                    ; Aporta 1 ciclo máquina. Este es el valor de "K".
                      00056 ; El próximo bloque "RetardoMicros" tarda:
                      00057 ; 1 + (K-1) + 2 + (K-1)x2 + 2 = (2 + 3K) ciclos máquina.
0026                  00058 RETARDOMICROS:
0026   0080           00059     MOVWF       R_CONTA                 ; Aporta 1 ciclo máquina.
MPASM 5.86                   RECEPTOR_IR.ASM   8-21-2020  2:13:17         PAGE  3


LOC  OBJECT CODE     LINE SOURCE TEXT
  VALUE

0027                  00060 RMICROS_BUCLE:
0027   0B80           00061     DECFSZ      R_CONTA,F               ; (K-1)x1 cm (cuando no salta) + 2 cm (al saltar).
0028   2???           00062     GOTO        RMICROS_BUCLE           ; Aporta (K-1)x2 ciclos máquina.
0029   0008           00063     RETURN                              ; El salto del retorno aporta 2 ciclos máquina.
                      00064 ;En total estas subrutinas tardan:
                      00065 ; - Retardo_500micros:  2 + 1 + 1 + 2 + (2 + 3K) = 500 cm = 500 µs. (para K=164 y 4 MHz).
                      00066 ; - Retardo_200micros:  2 + 1 + 1 + 2 + (2 + 3K) = 200 cm = 200 µs. (para K= 64 y 4 MHz).
                      00067 ; - Retardo_100micros:  2     + 1 + 2 + (2 + 3K) = 100 cm = 100 µs. (para K= 31 y 4 MHz).
                      00068 ; - Retardo_50micros :  2 + 1 + 1 + 2 + (2 + 3K) =  50 cm =  50 µs. (para K= 14 y 4 MHz).
                      00069 ; - Retardo_20micros :  2     + 1     + (2 + 3K) =  20 cm =  20 µs. (para K=  5 y 4 MHz).
                      00070 ; RETARDOS de 1 ms hasta 200 ms. --------------------------------------------------------
002A                  00071 RETARDO_200MS:                          ; La llamada "call" aporta 2 ciclos máquina.
002A   30C8           00072     MOVLW       D'200'                  ; Aporta 1 ciclo máquina. Este es el valor de "M".
002B   2???           00073     GOTO        RETARDOS_MS             ; Aporta 2 ciclos máquina.
002C                  00074 RETARDO_100MS:                          ; La llamada "call" aporta 2 ciclos máquina.
002C   3064           00075     MOVLW       D'100'                  ; Aporta 1 ciclo máquina. Este es el valor de "M".
002D   2???           00076     GOTO        RETARDOS_MS             ; Aporta 2 ciclos máquina.
002E                  00077 RETARDO_50MS:                           ; La llamada "call" aporta 2 ciclos máquina.
002E   3032           00078     MOVLW       D'50'                   ; Aporta 1 ciclo máquina. Este es el valor de "M".
002F   2???           00079     GOTO        RETARDOS_MS             ; Aporta 2 ciclos máquina.
0030                  00080 RETARDO_20MS:                           ; La llamada "call" aporta 2 ciclos máquina.    
0030   3014           00081     MOVLW       D'20'                   ; Aporta 1 ciclo máquina. Este es el valor de "M".
0031   2???           00082     GOTO        RETARDOS_MS             ; Aporta 2 ciclos máquina.
0032                  00083 RETARDO_10MS:                           ; La llamada "call" aporta 2 ciclos máquina.
0032   300A           00084     MOVLW       D'10'                   ; Aporta 1 ciclo máquina. Este es el valor de "M".
0033   2???           00085     GOTO        RETARDOS_MS             ; Aporta 2 ciclos máquina.
0034                  00086 RETARDO_5MS:                            ; La llamada "call" aporta 2 ciclos máquina.
0034   3005           00087     MOVLW       D'5'                    ; Aporta 1 ciclo máquina. Este es el valor de "M".
0035   2???           00088     GOTO        RETARDOS_MS             ; Aporta 2 ciclos máquina.
0036                  00089 RETARDO_2MS:                            ; La llamada "call" aporta 2 ciclos máquina.
0036   3002           00090     MOVLW       D'2'                    ; Aporta 1 ciclo máquina. Este es el valor de "M".
0037   2???           00091     GOTO        RETARDOS_MS             ; Aporta 2 ciclos máquina.
0038                  00092 RETARDO_1MS:                            ; La llamada "call" aporta 2 ciclos máquina.
0038   3001           00093     MOVLW       D'1'                    ; Aporta 1 ciclo máquina. Este es el valor de "M".
                      00094 ; El próximo bloque "Retardos_ms" tarda:
                      00095 ; 1 + M + M + KxM + (K-1)xM + Mx2 + (K-1)Mx2 + (M-1) + 2 + (M-1)x2 + 2 =
                      00096 ; = (2 + 4M + 4KM) ciclos máquina. Para K=249 y M=1 supone 1002 ciclos máquina
                      00097 ; que a 4 MHz son 1002 µs = 1 ms.
0039                  00098 RETARDOS_MS:
0039   0081           00099     MOVWF       R_CONTB                 ; Aporta 1 ciclo máquina.
003A                  00100 R1MS_BUCLEEXTERNO:
003A   30F9           00101     MOVLW       D'249'                  ; Aporta Mx1 ciclos máquina. Este es el valor de "K".   
003B   0080           00102     MOVWF       R_CONTA                 ; Aporta Mx1 ciclos máquina.
003C                  00103 R1MS_BUCLEINTERNO:
003C   0000           00104     NOP                         ; Aporta KxMx1 ciclos máquina.
003D   0B80           00105     DECFSZ      R_CONTA,F               ; (K-1)xMx1 cm (cuando no salta) + Mx2 cm (al saltar).
003E   2???           00106     GOTO        R1MS_BUCLEINTERNO       ; Aporta (K-1)xMx2 ciclos máquina.
003F   0B81           00107     DECFSZ      R_CONTB,F               ; (M-1)x1 cm (cuando no salta) + 2 cm (al saltar).
0040   2???           00108     GOTO        R1MS_BUCLEEXTERNO       ; Aporta (M-1)x2 ciclos máquina.
0041   0008           00109     RETURN                              ; El salto del retorno aporta 2 ciclos máquina.
                      00110 ;En total estas subrutinas tardan:
                      00111 ; - Retardo_200ms:      2 + 1 + 2 + (2 + 4M + 4KM) = 200007 cm = 200 ms. (M=200 y K=249).
                      00112 ; - Retardo_100ms:      2 + 1 + 2 + (2 + 4M + 4KM) = 100007 cm = 100 ms. (M=100 y K=249).
MPASM 5.86                   RECEPTOR_IR.ASM   8-21-2020  2:13:17         PAGE  4


LOC  OBJECT CODE     LINE SOURCE TEXT
  VALUE

                      00113 ; - Retardo_50ms :      2 + 1 + 2 + (2 + 4M + 4KM) =  50007 cm =  50 ms. (M= 50 y K=249).
                      00114 ; - Retardo_20ms :      2 + 1 + 2 + (2 + 4M + 4KM) =  20007 cm =  20 ms. (M= 20 y K=249).
                      00115 ; - Retardo_10ms :      2 + 1 + 2 + (2 + 4M + 4KM) =  10007 cm =  10 ms. (M= 10 y K=249).
                      00116 ; - Retardo_5ms  :      2 + 1 + 2 + (2 + 4M + 4KM) =   5007 cm =   5 ms. (M=  5 y K=249).
                      00117 ; - Retardo_2ms  :      2 + 1 + 2 + (2 + 4M + 4KM) =   2007 cm =   2 ms. (M=  2 y K=249).
                      00118 ; - Retardo_1ms  :      2 + 1     + (2 + 4M + 4KM) =   1005 cm =   1 ms. (M=  1 y K=249).
                      00119 ; RETARDOS de 0.5 hasta 20 segundos ---------------------------------------------------
0042                  00120 RETARDO_20S:                            ; La llamada "call" aporta 2 ciclos máquina.
0042   30C8           00121     MOVLW       D'200'                  ; Aporta 1 ciclo máquina. Este es el valor de "N".
0043   2???           00122     GOTO        RETARDO_1DECIMA         ; Aporta 2 ciclos máquina.
0044                  00123 RETARDO_10S:                            ; La llamada "call" aporta 2 ciclos máquina.
0044   3064           00124     MOVLW       D'100'                  ; Aporta 1 ciclo máquina. Este es el valor de "N".  
0045   2???           00125     GOTO        RETARDO_1DECIMA         ; Aporta 2 ciclos máquina.
0046                  00126 RETARDO_5S:                             ; La llamada "call" aporta 2 ciclos máquina.
0046   3032           00127     MOVLW       D'50'                   ; Aporta 1 ciclo máquina. Este es el valor de "N".
0047   2???           00128     GOTO        RETARDO_1DECIMA         ; Aporta 2 ciclos máquina.
0048                  00129 RETARDO_2S:                             ; La llamada "call" aporta 2 ciclos máquina.
0048   3014           00130     MOVLW       D'20'                   ; Aporta 1 ciclo máquina. Este es el valor de "N".  
0049   2???           00131     GOTO        RETARDO_1DECIMA         ; Aporta 2 ciclos máquina.
004A                  00132 RETARDO_1S:                             ; La llamada "call" aporta 2 ciclos máquina.
004A   300A           00133     MOVLW       D'10'                   ; Aporta 1 ciclo máquina. Este es el valor de "N".
004B   2???           00134     GOTO        RETARDO_1DECIMA         ; Aporta 2 ciclos máquina.
004C                  00135 RETARDO_500MS:                          ; La llamada "call" aporta 2 ciclos máquina.
004C   3005           00136     MOVLW       D'5'                    ; Aporta 1 ciclo máquina. Este es el valor de "N".
                      00137 ; El próximo bloque "Retardo_1Decima" tarda:
                      00138 ; 1 + N + N + MxN + MxN + KxMxN + (K-1)xMxN + MxNx2 + (K-1)xMxNx2 +
                      00139 ;   + (M-1)xN + Nx2 + (M-1)xNx2 + (N-1) + 2 + (N-1)x2 + 2 =
                      00140 ; = (2 + 4M + 4MN + 4KM) ciclos máquina. Para K=249, M=100 y N=1 supone 100011
                      00141 ; ciclos máquina que a 4 MHz son 100011 µs = 100 ms = 0,1 s = 1 décima de segundo.
004D                  00142 RETARDO_1DECIMA:
004D   0082           00143     MOVWF       R_CONTC                 ; Aporta 1 ciclo máquina.
004E                  00144 R1DECIMA_BUCLEEXTERNO2:
004E   3064           00145     MOVLW       D'100'                  ; Aporta Nx1 ciclos máquina. Este es el valor de "M".
004F   0081           00146     MOVWF       R_CONTB                 ; Aporta Nx1 ciclos máquina.
0050                  00147 R1DECIMA_BUCLEEXTERNO:
0050   30F9           00148     MOVLW       D'249'                  ; Aporta MxNx1 ciclos máquina. Este es el valor de "K".
0051   0080           00149     MOVWF       R_CONTA                 ; Aporta MxNx1 ciclos máquina.
0052                  00150 R1DECIMA_BUCLEINTERNO:       
0052   0000           00151     NOP                                 ; Aporta KxMxNx1 ciclos máquina.
0053   0B80           00152     DECFSZ      R_CONTA,F               ; (K-1)xMxNx1 cm (si no salta) + MxNx2 cm (al saltar).
0054   2???           00153     GOTO        R1DECIMA_BUCLEINTERNO   ; Aporta (K-1)xMxNx2 ciclos máquina.
0055   0B81           00154     DECFSZ      R_CONTB,F               ; (M-1)xNx1 cm (cuando no salta) + Nx2 cm (al saltar).
0056   2???           00155     GOTO        R1DECIMA_BUCLEEXTERNO   ; Aporta (M-1)xNx2 ciclos máquina.
0057   0B82           00156     DECFSZ      R_CONTC,F               ; (N-1)x1 cm (cuando no salta) + 2 cm (al saltar).
0058   2???           00157     GOTO        R1DECIMA_BUCLEEXTERNO2  ; Aporta (N-1)x2 ciclos máquina.
0059   0008           00158     RETURN                              ; El salto del retorno aporta 2 ciclos máquina.
                      00159 ;En total estas subrutinas tardan:
                      00160 ; - Retardo_20s:        2 + 1 + 2 + (2 + 4N + 4MN + 4KMN) = 20000807 cm = 20 s.
                      00161 ;                       (N=200, M=100 y K=249).
                      00162 ; - Retardo_10s:        2 + 1 + 2 + (2 + 4N + 4MN + 4KMN) = 10000407 cm = 10 s.
                      00163 ;                       (N=100, M=100 y K=249).
                      00164 ; - Retardo_5s:         2 + 1 + 2 + (2 + 4N + 4MN + 4KMN) =  5000207 cm =  5 s.
                      00165 ;                       (N= 50, M=100 y K=249).
MPASM 5.86                   RECEPTOR_IR.ASM   8-21-2020  2:13:17         PAGE  5


LOC  OBJECT CODE     LINE SOURCE TEXT
  VALUE

                      00166 ; - Retardo_2s:         2 + 1 + 2 + (2 + 4N + 4MN + 4KMN) =  2000087 cm =  2 s.
                      00167 ;                       (N= 20, M=100 y K=249).
                      00168 ; - Retardo_1s:         2 + 1 + 2 + (2 + 4N + 4MN + 4KMN) =  1000047 cm =  1 s.
                      00169 ;                       (N= 10, M=100 y K=249).
                      00170 ; - Retardo_500ms:      2 + 1     + (2 + 4N + 4MN + 4KMN) =   500025 cm = 0,5 s.
                      00171 ;                       (N=  5, M=100 y K=249).
                      00172 ;       ===================================================================
                      00173 ;         Del libro "MICROCONTROLADOR PIC16F84. DESARROLLO DE PROYECTOS"
                      00174 ;         E. Palacios, F. Remiro y L. López.
                      00175 ;         Editorial Ra-Ma.  www.ra-ma.es
                      00176 ;       =====================================================
                      00177 
                      00178 
                      00034     #INCLUDE <RETARDOS_16MHZ.inc>
                      00001 ;************************* Librería "RETARDOS_16MHZ.INC"******************************
                      00002 ;
                      00003 ;      Librería de retardos para oscilador de 16 MHz.
                      00004 ;
                      00005 ;      Web: http://electronica-pic.blogspot.com
                      00006 ;
                      00007 ;*************************************************************************************
                      00008 
                      00009 ; Delay = 0.0005 seconds
                      00010 ; Clock frequency = 16 MHz
                      00011 
                      00012 ; Actual delay = 0.0005 seconds = 2000 cycles
                      00013 ; Error = 0 %
                      00014 
                      00015         cblock
  00000003            00016         r1
  00000004            00017         r2
                      00018         endc
005A                  00019 RETARDO_500MICROS_16:  ;1993 cycles
005A   308E           00020         movlw   0x8E
005B   0083           00021         movwf   r1
005C   3002           00022         movlw   0x02
005D   0084           00023         movwf   r2
005E                  00024 RETARDO_500MICROS_16_0:
005E   0B83           00025         decfsz  r1, f
005F   2???           00026         goto    $+2
0060   0B84           00027         decfsz  r2, f
0061   2???           00028         goto    RETARDO_500MICROS_16_0 ;3 cycles
0062   2???           00029         goto    $+1
0063   0000           00030         nop             ;4 cycles (including call)
0064   0008           00031         return
                      00032 
                      00033 ;----------------------------------------------------------------------------------------
                      00034 
                      00035 ; Delay = 0.0002 seconds
                      00036 ; Clock frequency = 16 MHz
                      00037 
                      00038 ; Actual delay = 0.0002 seconds = 800 cycles
                      00039 ; Error = 0 %
MPASM 5.86                   RECEPTOR_IR.ASM   8-21-2020  2:13:17         PAGE  6


LOC  OBJECT CODE     LINE SOURCE TEXT
  VALUE

                      00040 
                      00041         cblock
  00000005            00042         r3
  00000006            00043         r4
                      00044         endc
                      00045 
0065                  00046 Retardo_200micros
                      00047                         ;793 cycles
0065   309E           00048         movlw   0x9E
0066   0085           00049         movwf   r3
0067   3001           00050         movlw   0x01
0068   0086           00051         movwf   r4
0069                  00052 Retardo_200micros_0
0069   0B85           00053         decfsz  r3, f
006A   2???           00054         goto    $+2
006B   0B86           00055         decfsz  r4, f
006C   2???           00056         goto    Retardo_200micros_0
                      00057 
                      00058                         ;3 cycles
006D   2???           00059         goto    $+1
006E   0000           00060         nop
                      00061 
                      00062                         ;4 cycles (including call)
006F   0008           00063         return
                      00064 
                      00065 ;----------------------------------------------------------------------------------------
                      00066 
                      00067 ; Delay = 0.0001 seconds
                      00068 ; Clock frequency = 16 MHz
                      00069 
                      00070 ; Actual delay = 0.0001 seconds = 400 cycles
                      00071 ; Error = 0 %
                      00072 
                      00073         cblock
  00000007            00074         r5
                      00075         endc
                      00076 
0070                  00077 Retardo_100micros
                      00078                         ;394 cycles
0070   3083           00079         movlw   0x83
0071   0087           00080         movwf   r5
0072                  00081 Retardo_100micros_0
0072   0B87           00082         decfsz  r5, f
0073   2???           00083         goto    Retardo_100micros_0
                      00084 
                      00085                         ;2 cycles
0074   2???           00086         goto    $+1
                      00087 
                      00088                         ;4 cycles (including call)
0075   0008           00089         return
                      00090 
                      00091 ;----------------------------------------------------------------------------------------
                      00092 
MPASM 5.86                   RECEPTOR_IR.ASM   8-21-2020  2:13:17         PAGE  7


LOC  OBJECT CODE     LINE SOURCE TEXT
  VALUE

                      00093 ; Delay = 5e-05 seconds
                      00094 ; Clock frequency = 16 MHz
                      00095 
                      00096 ; Actual delay = 5e-05 seconds = 200 cycles
                      00097 ; Error = 0 %
                      00098 
                      00099         cblock
  00000008            00100         r6
                      00101         endc
                      00102 
0076                  00103 Retardo_50micros
                      00104                         ;196 cycles
0076   3041           00105         movlw   0x41
0077   0088           00106         movwf   r6
0078                  00107 Retardo_50micros_0
0078   0B88           00108         decfsz  r6, f
0079   2???           00109         goto    Retardo_50micros_0
                      00110 
                      00111                         ;4 cycles (including call)
007A   0008           00112         return
                      00113 
                      00114 ;----------------------------------------------------------------------------------------
                      00115 
                      00116 ; Delay = 2e-05 seconds
                      00117 ; Clock frequency = 16 MHz
                      00118 
                      00119 ; Actual delay = 2e-05 seconds = 80 cycles
                      00120 ; Error = 0 %
                      00121 
                      00122         cblock
  00000009            00123         r7
                      00124         endc
                      00125 
007B                  00126 RETARDO_20MICROS_16:
                      00127                         ;76 cycles
007B   3019           00128         movlw   0x19
007C   0089           00129         movwf   r7
007D                  00130 RETARDO_20MICROS_16_0:
007D   0B89           00131         decfsz  r7, f
007E   2???           00132         goto    RETARDO_20MICROS_16_0
                      00133 
                      00134                         ;4 cycles (including call)
007F   0008           00135         return
                      00136         
                      00137         
                      00138 ;----------------------------------------------------------------------------------------
                      00139 
                      00140 ; Delay = 2e-05 seconds
                      00141 ; Clock frequency = 16 MHz
                      00142 
                      00143 ; Actual delay = 2e-05 seconds = 80 cycles
                      00144 ; Error = 0 %
                      00145 
MPASM 5.86                   RECEPTOR_IR.ASM   8-21-2020  2:13:17         PAGE  8


LOC  OBJECT CODE     LINE SOURCE TEXT
  VALUE

                      00146         cblock
  0000000A            00147         r52
                      00148         endc
                      00149 
0080                  00150 RETARDO_13MICROS_16:
                      00151                         ;49 cycles
0080   300E           00152         movlw   0xE
0081   008A           00153         movwf   r52
0082                  00154 RETARDO_13MICROS_16_0:
0082   0B8A           00155         decfsz  r52, f
0083   2???           00156         goto    RETARDO_13MICROS_16_0
                      00157 
                      00158                         ;4 cycles (including call)
0084   0008           00159         return
                      00160 
                      00161 ;----------------------------------------------------------------------------------------
                      00162 
                      00163 ; Delay = 0.2 seconds
                      00164 ; Clock frequency = 16 MHz
                      00165 
                      00166 ; Actual delay = 0.2 seconds = 800000 cycles
                      00167 ; Error = 0 %
                      00168 
                      00169         cblock
  0000000B            00170         r8
  0000000C            00171         r9
  0000000D            00172         r10
                      00173         endc
                      00174 
0085                  00175 Retardo_200ms
                      00176                         ;799993 cycles
0085   306C           00177         movlw   0x6C
0086   008B           00178         movwf   r8
0087   30BF           00179         movlw   0xBF
0088   008C           00180         movwf   r9
0089   3002           00181         movlw   0x02
008A   008D           00182         movwf   r10
008B                  00183 Retardo_200ms_0
008B   0B8B           00184         decfsz  r8, f
008C   2???           00185         goto    $+2
008D   0B8C           00186         decfsz  r9, f
008E   2???           00187         goto    $+2
008F   0B8D           00188         decfsz  r10, f
0090   2???           00189         goto    Retardo_200ms_0
                      00190 
                      00191                         ;3 cycles
0091   2???           00192         goto    $+1
0092   0000           00193         nop
                      00194 
                      00195                         ;4 cycles (including call)
0093   0008           00196         return
                      00197 
                      00198 ;----------------------------------------------------------------------------------------
MPASM 5.86                   RECEPTOR_IR.ASM   8-21-2020  2:13:17         PAGE  9


LOC  OBJECT CODE     LINE SOURCE TEXT
  VALUE

                      00199 
                      00200 ; Delay = 0.1 seconds
                      00201 ; Clock frequency = 16 MHz
                      00202 
                      00203 ; Actual delay = 0.1 seconds = 400000 cycles
                      00204 ; Error = 0 %
                      00205 
                      00206         cblock
  0000000E            00207         r11
  0000000F            00208         r12
  00000010            00209         r13
                      00210         endc
                      00211 
0094                  00212 Retardo_100ms
                      00213                         ;399992 cycles
0094   3035           00214         movlw   0x35
0095   008E           00215         movwf   r11
0096   30E0           00216         movlw   0xE0
0097   008F           00217         movwf   r12
0098   3001           00218         movlw   0x01
0099   0090           00219         movwf   r13
009A                  00220 Retardo_100ms_0
009A   0B8E           00221         decfsz  r11, f
009B   2???           00222         goto    $+2
009C   0B8F           00223         decfsz  r12, f
009D   2???           00224         goto    $+2
009E   0B90           00225         decfsz  r13, f
009F   2???           00226         goto    Retardo_100ms_0
                      00227 
                      00228                         ;4 cycles
00A0   2???           00229         goto    $+1
00A1   2???           00230         goto    $+1
                      00231 
                      00232                         ;4 cycles (including call)
00A2   0008           00233         return
                      00234 
                      00235 ;----------------------------------------------------------------------------------------
                      00236 
                      00237 ; Delay = 0.05 seconds
                      00238 ; Clock frequency = 16 MHz
                      00239 
                      00240 ; Actual delay = 0.05 seconds = 200000 cycles
                      00241 ; Error = 0 %
                      00242 
                      00243         cblock
  00000011            00244         r14
  00000012            00245         r15
                      00246         endc
                      00247 
00A3                  00248 Retardo_50ms
                      00249                         ;199993 cycles
00A3   303E           00250         movlw   0x3E
00A4   0091           00251         movwf   r14
MPASM 5.86                   RECEPTOR_IR.ASM   8-21-2020  2:13:17         PAGE 10


LOC  OBJECT CODE     LINE SOURCE TEXT
  VALUE

00A5   309D           00252         movlw   0x9D
00A6   0092           00253         movwf   r15
00A7                  00254 Retardo_50ms_0
00A7   0B91           00255         decfsz  r14, f
00A8   2???           00256         goto    $+2
00A9   0B92           00257         decfsz  r15, f
00AA   2???           00258         goto    Retardo_50ms_0
                      00259 
                      00260                         ;3 cycles
00AB   2???           00261         goto    $+1
00AC   0000           00262         nop
                      00263 
                      00264                         ;4 cycles (including call)
00AD   0008           00265         return
                      00266 
                      00267 ;----------------------------------------------------------------------------------------
                      00268 
                      00269 ; Delay = 0.02 seconds
                      00270 ; Clock frequency = 16 MHz
                      00271 
                      00272 ; Actual delay = 0.02 seconds = 80000 cycles
                      00273 ; Error = 0 %
                      00274 
                      00275         cblock
  00000013            00276         r16
  00000014            00277         r17
                      00278         endc
                      00279 
00AE                  00280 Retardo_20ms
                      00281                         ;79993 cycles
00AE   307E           00282         movlw   0x7E
00AF   0093           00283         movwf   r16
00B0   303F           00284         movlw   0x3F
00B1   0094           00285         movwf   r17
00B2                  00286 Retardo_20ms_0
00B2   0B93           00287         decfsz  r16, f
00B3   2???           00288         goto    $+2
00B4   0B94           00289         decfsz  r17, f
00B5   2???           00290         goto    Retardo_20ms_0
                      00291 
                      00292                         ;3 cycles
00B6   2???           00293         goto    $+1
00B7   0000           00294         nop
                      00295 
                      00296                         ;4 cycles (including call)
00B8   0008           00297         return
                      00298 
                      00299 ;----------------------------------------------------------------------------------------
                      00300 
                      00301 ; Delay = 0.01 seconds
                      00302 ; Clock frequency = 16 MHz
                      00303 
                      00304 ; Actual delay = 0.01 seconds = 40000 cycles
MPASM 5.86                   RECEPTOR_IR.ASM   8-21-2020  2:13:17         PAGE 11


LOC  OBJECT CODE     LINE SOURCE TEXT
  VALUE

                      00305 ; Error = 0 %
                      00306 
                      00307         cblock
  00000015            00308         r18
  00000016            00309         r19
                      00310         endc
                      00311 
00B9                  00312 Retardo_10ms
                      00313                         ;39993 cycles
00B9   303E           00314         movlw   0x3E
00BA   0095           00315         movwf   r18
00BB   3020           00316         movlw   0x20
00BC   0096           00317         movwf   r19
00BD                  00318 Retardo_10ms_0
00BD   0B95           00319         decfsz  r18, f
00BE   2???           00320         goto    $+2
00BF   0B96           00321         decfsz  r19, f
00C0   2???           00322         goto    Retardo_10ms_0
                      00323 
                      00324                         ;3 cycles
00C1   2???           00325         goto    $+1
00C2   0000           00326         nop
                      00327 
                      00328                         ;4 cycles (including call)
00C3   0008           00329         return
                      00330 
                      00331 ;----------------------------------------------------------------------------------------
                      00332 
                      00333 ; Delay = 0.005 seconds
                      00334 ; Clock frequency = 16 MHz
                      00335 
                      00336 ; Actual delay = 0.005 seconds = 20000 cycles
                      00337 ; Error = 0 %
                      00338 
                      00339         cblock
  00000017            00340         r20
  00000018            00341         r21
                      00342         endc
                      00343 
00C4                  00344 Retardo_5ms
                      00345                         ;19993 cycles
00C4   309E           00346         movlw   0x9E
00C5   0097           00347         movwf   r20
00C6   3010           00348         movlw   0x10
00C7   0098           00349         movwf   r21
00C8                  00350 Retardo_5ms_0
00C8   0B97           00351         decfsz  r20, f
00C9   2???           00352         goto    $+2
00CA   0B98           00353         decfsz  r21, f
00CB   2???           00354         goto    Retardo_5ms_0
                      00355 
                      00356                         ;3 cycles
00CC   2???           00357         goto    $+1
MPASM 5.86                   RECEPTOR_IR.ASM   8-21-2020  2:13:17         PAGE 12


LOC  OBJECT CODE     LINE SOURCE TEXT
  VALUE

00CD   0000           00358         nop
                      00359 
                      00360                         ;4 cycles (including call)
00CE   0008           00361         return
                      00362 
                      00363 ;----------------------------------------------------------------------------------------
                      00364 
                      00365 ; Delay = 0.002 seconds
                      00366 ; Clock frequency = 16 MHz
                      00367 
                      00368 ; Actual delay = 0.002 seconds = 8000 cycles
                      00369 ; Error = 0 %
                      00370 
                      00371         cblock
  00000019            00372         r22
  0000001A            00373         r23
                      00374         endc
                      00375 
00CF                  00376 Retardo_2ms
                      00377                         ;7993 cycles
00CF   303E           00378         movlw   0x3E
00D0   0099           00379         movwf   r22
00D1   3007           00380         movlw   0x07
00D2   009A           00381         movwf   r23
00D3                  00382 Retardo_2ms_0
00D3   0B99           00383         decfsz  r22, f
00D4   2???           00384         goto    $+2
00D5   0B9A           00385         decfsz  r23, f
00D6   2???           00386         goto    Retardo_2ms_0
                      00387 
                      00388                         ;3 cycles
00D7   2???           00389         goto    $+1
00D8   0000           00390         nop
                      00391 
                      00392                         ;4 cycles (including call)
00D9   0008           00393         return
                      00394 
                      00395 ;----------------------------------------------------------------------------------------
                      00396 
                      00397 ; Delay = 0.001 seconds
                      00398 ; Clock frequency = 16 MHz
                      00399 
                      00400 ; Actual delay = 0.001 seconds = 4000 cycles
                      00401 ; Error = 0 %
                      00402 
                      00403         cblock
  0000001B            00404         r24
  0000001C            00405         r25
                      00406         endc
                      00407 
00DA                  00408 Retardo_1ms
                      00409                         ;3993 cycles
00DA   301E           00410         movlw   0x1E
MPASM 5.86                   RECEPTOR_IR.ASM   8-21-2020  2:13:17         PAGE 13


LOC  OBJECT CODE     LINE SOURCE TEXT
  VALUE

00DB   009B           00411         movwf   r24
00DC   3004           00412         movlw   0x04
00DD   009C           00413         movwf   r25
00DE                  00414 Retardo_1ms_0
00DE   0B9B           00415         decfsz  r24, f
00DF   2???           00416         goto    $+2
00E0   0B9C           00417         decfsz  r25, f
00E1   2???           00418         goto    Retardo_1ms_0
                      00419 
                      00420                         ;3 cycles
00E2   2???           00421         goto    $+1
00E3   0000           00422         nop
                      00423 
                      00424                         ;4 cycles (including call)
00E4   0008           00425         return
                      00426 
                      00427 ;----------------------------------------------------------------------------------------
                      00428 
                      00429 ; Delay = 20 seconds
                      00430 ; Clock frequency = 16 MHz
                      00431 
                      00432 ; Actual delay = 20 seconds = 80000000 cycles
                      00433 ; Error = 0 %
                      00434 
                      00435         cblock
  0000001D            00436         r26
  0000001E            00437         r27
  0000001F            00438         r28
                      00439         endc
                      00440 
00E5                  00441 Retardo_20s
                      00442                         ;79999995 cycles
00E5   30DA           00443         movlw   0xDA
00E6   009D           00444         movwf   r26
00E7   3063           00445         movlw   0x63
00E8   009E           00446         movwf   r27
00E9   30AF           00447         movlw   0xAF
00EA   009F           00448         movwf   r28
00EB                  00449 Retardo_20s_0
00EB   0B9D           00450         decfsz  r26, f
00EC   2???           00451         goto    $+2
00ED   0B9E           00452         decfsz  r27, f
00EE   2???           00453         goto    $+2
00EF   0B9F           00454         decfsz  r28, f
00F0   2???           00455         goto    Retardo_20s_0
                      00456 
                      00457                         ;1 cycle
00F1   0000           00458         nop
                      00459 
                      00460                         ;4 cycles (including call)
00F2   0008           00461         return
                      00462 
                      00463 ;----------------------------------------------------------------------------------------
MPASM 5.86                   RECEPTOR_IR.ASM   8-21-2020  2:13:17         PAGE 14


LOC  OBJECT CODE     LINE SOURCE TEXT
  VALUE

                      00464 
                      00465 ; Delay = 10 seconds
                      00466 ; Clock frequency = 16 MHz
                      00467 
                      00468 ; Actual delay = 10 seconds = 40000000 cycles
                      00469 ; Error = 0 %
                      00470 
                      00471         cblock
  00000020            00472         r29
  00000021            00473         r30
  00000022            00474         r31
                      00475         endc
                      00476 
00F3                  00477 Retardo_10s
                      00478                         ;39999993 cycles
00F3   306C           00479         movlw   0x6C
00F4   00A0           00480         movwf   r29
00F5   3032           00481         movlw   0x32
00F6   00A1           00482         movwf   r30
00F7   3058           00483         movlw   0x58
00F8   00A2           00484         movwf   r31
00F9                  00485 Retardo_10s_0
00F9   0BA0           00486         decfsz  r29, f
00FA   2???           00487         goto    $+2
00FB   0BA1           00488         decfsz  r30, f
00FC   2???           00489         goto    $+2
00FD   0BA2           00490         decfsz  r31, f
00FE   2???           00491         goto    Retardo_10s_0
                      00492 
                      00493                         ;3 cycles
00FF   2???           00494         goto    $+1
0100   0000           00495         nop
                      00496 
                      00497                         ;4 cycles (including call)
0101   0008           00498         return
                      00499 
                      00500 ;----------------------------------------------------------------------------------------
                      00501 
                      00502 ; Delay = 5 seconds
                      00503 ; Clock frequency = 16 MHz
                      00504 
                      00505 ; Actual delay = 5 seconds = 20000000 cycles
                      00506 ; Error = 0 %
                      00507 
                      00508         cblock
  00000023            00509         r32
  00000024            00510         r33
  00000025            00511         r34
                      00512         endc
                      00513 
0102                  00514 Retardo_5s
                      00515                         ;19999992 cycles
0102   30B5           00516         movlw   0xB5
MPASM 5.86                   RECEPTOR_IR.ASM   8-21-2020  2:13:17         PAGE 15


LOC  OBJECT CODE     LINE SOURCE TEXT
  VALUE

0103   00A3           00517         movwf   r32
0104   3099           00518         movlw   0x99
0105   00A4           00519         movwf   r33
0106   302C           00520         movlw   0x2C
0107   00A5           00521         movwf   r34
0108                  00522 Retardo_5s_0
0108   0BA3           00523         decfsz  r32, f
0109   2???           00524         goto    $+2
010A   0BA4           00525         decfsz  r33, f
010B   2???           00526         goto    $+2
010C   0BA5           00527         decfsz  r34, f
010D   2???           00528         goto    Retardo_5s_0
                      00529 
                      00530                         ;4 cycles
010E   2???           00531         goto    $+1
010F   2???           00532         goto    $+1
                      00533 
                      00534                         ;4 cycles (including call)
0110   0008           00535         return
                      00536 
                      00537 ;----------------------------------------------------------------------------------------
                      00538 
                      00539 ; Delay = 2 seconds
                      00540 ; Clock frequency = 16 MHz
                      00541 
                      00542 ; Actual delay = 2 seconds = 8000000 cycles
                      00543 ; Error = 0 %
                      00544 
                      00545         cblock
  00000026            00546         r35
  00000027            00547         r36
  00000028            00548         r37
                      00549         endc
                      00550 
0111                  00551 RETARDO_2S_16:      ;7999990 cycles
0111   3047           00552         movlw   0x47
0112   00A6           00553         movwf   r35
0113   3071           00554         movlw   0x71
0114   00A7           00555         movwf   r36
0115   3012           00556         movlw   0x12
0116   00A8           00557         movwf   r37
0117                  00558 RETARDO_2S_16_0:
0117   0BA6           00559         decfsz  r35, f
0118   2???           00560         goto    $+2
0119   0BA7           00561         decfsz  r36, f
011A   2???           00562         goto    $+2
011B   0BA8           00563         decfsz  r37, f
011C   2???           00564         goto    RETARDO_2S_16_0
                      00565 
                      00566                         ;6 cycles
011D   2???           00567         goto    $+1
011E   2???           00568         goto    $+1
011F   2???           00569         goto    $+1
MPASM 5.86                   RECEPTOR_IR.ASM   8-21-2020  2:13:17         PAGE 16


LOC  OBJECT CODE     LINE SOURCE TEXT
  VALUE

                      00570 
                      00571                         ;4 cycles (including call)
0120   0008           00572         return
                      00573 
                      00574 ;----------------------------------------------------------------------------------------
                      00575 
                      00576 ; Delay = 1 seconds
                      00577 ; Clock frequency = 16 MHz
                      00578 
                      00579 ; Actual delay = 1 seconds = 4000000 cycles
                      00580 ; Error = 0 %
                      00581 
                      00582         cblock
  00000029            00583         r38
  0000002A            00584         r39
  0000002B            00585         r40
                      00586         endc
                      00587 
0121                  00588 Retardo_1s
                      00589                         ;3999994 cycles
0121   3023           00590         movlw   0x23
0122   00A9           00591         movwf   r38
0123   30B9           00592         movlw   0xB9
0124   00AA           00593         movwf   r39
0125   3009           00594         movlw   0x09
0126   00AB           00595         movwf   r40
0127                  00596 Retardo_1s_0
0127   0BA9           00597         decfsz  r38, f
0128   2???           00598         goto    $+2
0129   0BAA           00599         decfsz  r39, f
012A   2???           00600         goto    $+2
012B   0BAB           00601         decfsz  r40, f
012C   2???           00602         goto    Retardo_1s_0
                      00603 
                      00604                         ;2 cycles
012D   2???           00605         goto    $+1
                      00606 
                      00607                         ;4 cycles (including call)
012E   0008           00608         return
                      00609 
                      00610 ;----------------------------------------------------------------------------------------
                      00611 
                      00612 ; Delay = 0.5 seconds
                      00613 ; Clock frequency = 16 MHz
                      00614 
                      00615 ; Actual delay = 0.5 seconds = 2000000 cycles
                      00616 ; Error = 0 %
                      00617 
                      00618         cblock
  0000002C            00619         r41
  0000002D            00620         r42
  0000002E            00621         r43
                      00622         endc
MPASM 5.86                   RECEPTOR_IR.ASM   8-21-2020  2:13:17         PAGE 17


LOC  OBJECT CODE     LINE SOURCE TEXT
  VALUE

                      00623 
012F                  00624 RETARDO_500MS_16:       ;1999996 cycles
012F   3011           00625         movlw   0x11
0130   00AC           00626         movwf   r41
0131   305D           00627         movlw   0x5D
0132   00AD           00628         movwf   r42
0133   3005           00629         movlw   0x05
0134   00AE           00630         movwf   r43
0135                  00631 RETARDO_500MS_16_0:
0135   0BAC           00632         decfsz  r41, f
0136   2???           00633         goto    $+2
0137   0BAD           00634         decfsz  r42, f
0138   2???           00635         goto    $+2
0139   0BAE           00636         decfsz  r43, f
013A   2???           00637         goto    RETARDO_500MS_16_0
                      00638 
                      00639                         ;4 cycles (including call)
013B   0008           00640         return
                      00641 
                      00642 ;----------------------------------------------------------------------------------------
                      00643 
                      00644 ; Delay = 30 seconds
                      00645 ; Clock frequency = 16 MHz
                      00646 
                      00647 ; Actual delay = 30 seconds = 120000000 cycles
                      00648 ; Error = 0 %
                      00649 
                      00650         cblock
  0000002F            00651         r44
  00000030            00652         r45
  00000031            00653         r46
  00000032            00654         r47
                      00655         endc
                      00656 
013C                  00657 Retardo_30s
                      00658                         ;119999995 cycles
013C   3054           00659         movlw   0x54
013D   00AF           00660         movwf   r44
013E   3074           00661         movlw   0x74
013F   00B0           00662         movwf   r45
0140   30CC           00663         movlw   0xCC
0141   00B1           00664         movwf   r46
0142   3001           00665         movlw   0x01
0143   00B2           00666         movwf   r47
0144                  00667 Retardo_30s_0
0144   0BAF           00668         decfsz  r44, f
0145   2???           00669         goto    $+2
0146   0BB0           00670         decfsz  r45, f
0147   2???           00671         goto    $+2
0148   0BB1           00672         decfsz  r46, f
0149   2???           00673         goto    $+2
014A   0BB2           00674         decfsz  r47, f
014B   2???           00675         goto    Retardo_30s_0
MPASM 5.86                   RECEPTOR_IR.ASM   8-21-2020  2:13:17         PAGE 18


LOC  OBJECT CODE     LINE SOURCE TEXT
  VALUE

                      00676 
                      00677                         ;1 cycle
014C   0000           00678         nop
                      00679 
                      00680                         ;4 cycles (including call)
014D   0008           00681         return
                      00682 
                      00683 ;----------------------------------------------------------------------------------------
                      00684 
                      00685 ; Delay = 60 seconds
                      00686 ; Clock frequency = 16 MHz
                      00687 
                      00688 ; Actual delay = 60 seconds = 240000000 cycles
                      00689 ; Error = 0 %
                      00690 
                      00691         cblock
  00000033            00692         r48
  00000034            00693         r49
  00000035            00694         r50
  00000036            00695         r51
                      00696         endc
                      00697 
014E                  00698 Retardo_60s
                      00699                         ;239999992 cycles
014E   30A9           00700         movlw   0xA9
014F   00B3           00701         movwf   r48
0150   30E7           00702         movlw   0xE7
0151   00B4           00703         movwf   r49
0152   3097           00704         movlw   0x97
0153   00B5           00705         movwf   r50
0154   3002           00706         movlw   0x02
0155   00B6           00707         movwf   r51
0156                  00708 Retardo_60s_0
0156   0BB3           00709         decfsz  r48, f
0157   2???           00710         goto    $+2
0158   0BB4           00711         decfsz  r49, f
0159   2???           00712         goto    $+2
015A   0BB5           00713         decfsz  r50, f
015B   2???           00714         goto    $+2
015C   0BB6           00715         decfsz  r51, f
015D   2???           00716         goto    Retardo_60s_0
                      00717 
                      00718                         ;4 cycles
015E   2???           00719         goto    $+1
015F   2???           00720         goto    $+1
                      00721 
                      00722                         ;4 cycles (including call)
0160   0008           00723         return
                      00724 
                      00725 ;----------------------------------------------------------------------------------------
                      00726 ;
                      00727 ;      Librería de retardos para oscilador de 16 MHz.
                      00728 ;
MPASM 5.86                   RECEPTOR_IR.ASM   8-21-2020  2:13:17         PAGE 19


LOC  OBJECT CODE     LINE SOURCE TEXT
  VALUE

                      00729 ;      Web: http://electronica-pic.blogspot.com
                      00730 ;
                      00731 ;*****************************************************************************************
                      00732 
                      00035     #INCLUDE <LCD.inc>
                      00001     CBLOCK
  00000037            00002     memocaracter
  00000038            00003     memoriaw
  00000039            00004     caractertemp
                      00005     ENDC
                      00006     
  00000008            00007 DATOS EQU PORTD ;LINEAS DE DATOS
  00000008            00008 PINLCD EQU PORTD    ;LINEAS DE CONTROL
                      00009  
  00000001            00010 RS EQU 1    ;LINEA DE CONTROL RS 
  00000002            00011 RW EQU 2        ;LINEA DE CONTROL RW
  00000003            00012 E EQU 3 ;LINEA DE OCNTROL E
                      00013  
  0000000F            00014 ON_DISPLAY_CURSOR_BLINK EQU 0FH ;ACTIVA EL DISPLAY, EL CURSOR Y HACE PARPADEO
  0000000C            00015 SOLO_DISPLAY EQU 0CH            ;APAGA EL CURSOR Y SU PARPADEO
  00000001            00016 LIMPIAR_LCD EQU 01H                     ;LIMPIA LOS CARACTERES DE LA PANTALLA
  00000008            00017 APAGAR_DISPLAY  EQU 08H         ;APAGA LA PANTALLA
  000000C0            00018 SALTO_ENTER EQU D'192'                  ;SE DIRIGE A LA SEGUNDA LINEA
  00000002            00019 HOME_INICIO EQU 02H                     ;VUELVE AL INICIO
  00000010            00020 MOVER_CURSOR_IZQ EQU 10H                ;MUEVE EL CURSOR A LA IZQUIERDA
  00000014            00021 MOVER_CURSOR_DERECHA EQU 14H    ;MUEVE EL CURSOR A LA DERECHA
  00000018            00022 MOVER_PANTALLA_IZQ EQU 18H              ;MUEVE LA PANTALLA A LA IZQUIERDA
  0000001C            00023 MOVER_PANTALLA_DERECHA EQU 1CH  ;MUEVE LA PANTALLA A LA DERECHA
  00000000            00024 OFF EQU 0
  00000001            00025 ON EQU 1
0161                  00026 ESCRIBIR_COMANDO:
0161   00B7           00027     MOVWF memocaracter
0162   2???           00028     CALL COMPROBAR_OCUPADO
0163   0837           00029     MOVF memocaracter,W
0164   39F0           00030     ANDLW B'11110000'
0165   0088           00031     MOVWF DATOS
0166   1108           00032     BCF PINLCD,RW
0167   1188           00033     BCF PINLCD,E
0168   0000           00034     NOP
0169   1588           00035     BSF PINLCD,E
016A   0000           00036     NOP
016B   1188           00037     BCF PINLCD,E
016C   0E37           00038     SWAPF memocaracter,W
016D   39F0           00039     ANDLW B'11110000'
016E   0088           00040     MOVWF DATOS
016F   0000           00041     NOP
0170   1588           00042     BSF PINLCD,E
0171   0000           00043     NOP
0172   1188           00044     BCF PINLCD,E
0173   0008           00045     RETURN
                      00046     
0174                  00047 COMPROBAR_OCUPADO:
0174   1683           00048     BSF STATUS,RP0
MPASM 5.86                   RECEPTOR_IR.ASM   8-21-2020  2:13:17         PAGE 20


LOC  OBJECT CODE     LINE SOURCE TEXT
  VALUE

0175   1303           00049     BCF STATUS,RP1
0176   30F0           00050     MOVLW B'11110000'
Message[302]: Register in operand not in bank 0.  Ensure that bank bits are correct.
0177   0088           00051     MOVWF TRISD
0178   1283           00052     BCF STATUS,RP0
0179   1303           00053     BCF STATUS,RP1
017A   1088           00054     BCF PINLCD,RS
017B   1508           00055     BSF PINLCD,RW
017C   0000           00056     NOP
017D   1588           00057     BSF PINLCD,E
017E   0000           00058     NOP
017F   0808           00059     MOVF DATOS,W
0180   1188           00060     BCF PINLCD,E
0181   390F           00061     ANDLW 0FH
0182   00B9           00062     MOVWF caractertemp
0183   0000           00063     NOP
0184   1588           00064     BSF PINLCD,E
0185   0000           00065     NOP
0186   0E08           00066     SWAPF DATOS,W
0187   1188           00067     BCF PINLCD,E
0188   390F           00068     ANDLW 0FH
0189   04B9           00069     IORWF caractertemp,1
018A   1BB9           00070     BTFSC caractertemp,7
018B   2???           00071     GOTO COMPROBAR_OCUPADO
018C   1508           00072     BSF PINLCD,RW
018D   1683           00073     BSF STATUS,RP0
018E   1303           00074     BCF STATUS,RP1
018F   3000           00075     MOVLW 0x00
Message[302]: Register in operand not in bank 0.  Ensure that bank bits are correct.
0190   0088           00076     MOVWF TRISD
0191   1283           00077     BCF STATUS,RP0
0192   1303           00078     BCF STATUS,RP1
0193   0008           00079     RETURN
                      00080 
0194                  00081 ESCRIBIR_CARACTER:
0194   00B8           00082     MOVWF memoriaw
0195   00B7           00083     MOVWF memocaracter
0196   2???           00084     CALL COMPROBAR_OCUPADO
0197   0837           00085     MOVF memocaracter,W
0198   39F0           00086     ANDLW B'11110000'
0199   0088           00087     MOVWF DATOS
019A   1108           00088     BCF PINLCD,RW
019B   1488           00089     BSF PINLCD,RS
019C   0000           00090     NOP
019D   1588           00091     BSF PINLCD,E
019E   0000           00092     NOP
019F   1188           00093     BCF PINLCD,E
01A0   0E37           00094     SWAPF memocaracter,W
01A1   39F0           00095     ANDLW B'11110000'
01A2   0088           00096     MOVWF DATOS
01A3   1108           00097     BCF PINLCD,RW
01A4   1488           00098     BSF PINLCD,RS
01A5   0000           00099     NOP
MPASM 5.86                   RECEPTOR_IR.ASM   8-21-2020  2:13:17         PAGE 21


LOC  OBJECT CODE     LINE SOURCE TEXT
  VALUE

01A6   1588           00100     BSF PINLCD,E
01A7   0000           00101     NOP
01A8   1188           00102     BCF PINLCD,E
01A9   0838           00103     MOVF memoriaw,W
01AA   0008           00104     RETURN
                      00105     
01AB                  00106 INICIALIZACION_DE_PANTALLA: ;SUBRUTINA DE SECUENCIA PARA INICIAR EL LCD
01AB   1283           00107     BCF STATUS,RP0          ;BANCO 0
01AC   1303           00108     BCF STATUS,RP1
01AD   1188           00109     BCF PINLCD,E            ;SE APAGA EL PIN E
01AE   1108           00110     BCF PINLCD,RW           ;SE APAGA EL PIN RW
01AF   1088           00111     BCF PINLCD,RS           ;SE APAGA EL PIN RS
01B0   300F           00112     MOVLW 0x0F              ;ENCENDEMOS LOS PINES DEL LCD
01B1   0088           00113     MOVWF DATOS             ;EN EL PUERTO D
01B2   1683           00114     BSF STATUS,RP0          ;BANCO 1
01B3   1303           00115     BCF STATUS,RP1
01B4   300F           00116     MOVLW B'00001111'       ;TODOS LOS PINES DEL PUERTO D SON DECLARADOS COMO SALIDA
Message[302]: Register in operand not in bank 0.  Ensure that bank bits are correct.
01B5   0088           00117     MOVWF TRISD
Message[302]: Register in operand not in bank 0.  Ensure that bank bits are correct.
01B6   1188           00118     BCF TRISD,E             ;EL PIN E ES SALIDA
Message[302]: Register in operand not in bank 0.  Ensure that bank bits are correct.
01B7   1108           00119     BCF TRISD,RW            ;EL PIN RW ES SALIDA
Message[302]: Register in operand not in bank 0.  Ensure that bank bits are correct.
01B8   1088           00120     BCF TRISD,RS            ;EL PIN RS ES SALIDA
01B9   1283           00121     BCF STATUS,RP0          ;BANCO 0
01BA   1303           00122     BCF STATUS,RP1
01BB   2???           00123     CALL RETARDO_20MICROS
01BC   3030           00124     MOVLW B'00110000'       ;PRIMER VALOR PEDIDO POR EL FABRICANTE
01BD   0088           00125     MOVWF DATOS             ;LO ESCRIBIMOS EN EL PUERTOD
01BE   0000           00126     NOP
01BF   1588           00127     BSF PINLCD,E            ;IMPULSO AL PIN ENABLE
01C0   0000           00128     NOP                     ;ANCHO DE PULSO DE 0.2US
01C1   1188           00129     BCF PINLCD,E            ;FIN DEL IMPULSO
01C2   2???           00130     CALL RETARDO_5MS
01C3   3030           00131     MOVLW B'00110000'       ;SEGUNDO PEDIDO POR EL FABRICANTE
01C4   0088           00132     MOVWF DATOS             ;LO ESCRIBIMOS EN EL PUERTO D
01C5   0000           00133     NOP
01C6   1588           00134     BSF PINLCD,E            ;PULSO AL PIN ENABLE
01C7   0000           00135     NOP                     ;ANCHO DE PULSO DE 0.2US
01C8   1188           00136     BCF PINLCD,E            ;FIN DE PULSO
01C9   3030           00137     MOVLW B'00110000'       ;TERCER VALOR PEDIDO POR EL FABRICANTE
01CA   0088           00138     MOVWF DATOS             ;LO ESCRIBIMOS EN EL PUERTO D
01CB   0000           00139     NOP
01CC   1588           00140     BSF PINLCD,E            ;PULSO AL PIN ENABLE
01CD   0000           00141     NOP
01CE   1188           00142     BCF PINLCD,E            ;FIN DE PULSO
01CF   2???           00143     CALL RETARDO_200MICROS
01D0   2???           00144     CALL RETARDO_20MICROS
01D1   3020           00145     MOVLW B'00100000'       ;CARGAMOS COMANDO DE CONFIGURACION DE COMUNICACION DE 4 BITS
01D2   0088           00146     MOVWF DATOS             ;ESCRIBIMOS COMANDO EN EL PUERTOD
01D3   0000           00147     NOP
01D4   1588           00148     BSF PINLCD,E            ;PULSO AL PIN ENABLE
MPASM 5.86                   RECEPTOR_IR.ASM   8-21-2020  2:13:17         PAGE 22


LOC  OBJECT CODE     LINE SOURCE TEXT
  VALUE

01D5   0000           00149     NOP
01D6   1188           00150     BCF PINLCD,E            ;FIN DE PULSO
01D7   3028           00151     MOVLW B'00101000'
01D8   2???           00152     CALL ESCRIBIR_COMANDO
01D9   300F           00153     MOVLW ON_DISPLAY_CURSOR_BLINK
01DA   2???           00154     CALL ESCRIBIR_COMANDO
01DB   3001           00155     MOVLW LIMPIAR_LCD
01DC   2???           00156     CALL ESCRIBIR_COMANDO
01DD   3006           00157     MOVLW B'00000110'
01DE   2???           00158     CALL ESCRIBIR_COMANDO
01DF   3080           00159     MOVLW B'10000000'
01E0   2???           00160     CALL ESCRIBIR_COMANDO
01E1   0008           00161     RETURN
                      00036     #INCLUDE <IR.inc>
                      00001 ;CONFIGURACIONES DE PUERTOS.
  00000086            00002 IRTRIS equ TRISB
  00000006            00003 IRPORT equ PORTB
  00000004            00004 IRBIT equ 4         ;IR EN PORTB<4>
                      00005  
                      00006  ;PARAMETROS DE CONTROL REMOTO.
  00000018            00007 HEADER_LENGTH   equ     D'24'      ; header length = 2300 - 2500 us
  00000006            00008 SPACE_LENGTH    equ     D'6'       ; space length = 500 - 700 us
  0000000B            00009 ONE_LENGTH      equ     D'11'      ; one length = 1000 - 1200 us
  00000006            00010 ZERO_LENGTH     equ     D'6'       ; zero length = 500 - 700 us
  0000000C            00011 END_LENGTH      equ     D'12'      ; tail length = 1100 - 1300 us
                      00012       
                      00013 ;BITS EN IR_FLAGS.
  00000000            00014 BYTE_READY      equ     0       ; there is a signal in REC_BYTE2:REC_BYTE1
  00000001            00015 PREV            equ     1       ; value (1 = pulse, 0 = space) of last sample
  00000002            00016 RCV             equ     2       ; set if receiving a signal
                      00017  
                      00018 ;VARIABLES.
01E2   3FFF           00019 IR_FLAGS        res     1       ; flags for IR reception
01E3   3FFF           00020 CURR_TIME       res     1       ; time (/100us) so far in current pulse/space
01E4   3FFF           00021 PULSE_TIME      res     1       ; length (/100us) of last pulse
01E5   3FFF           00022 SPACE_TIME      res     1       ; length (/100us) of last space
01E6   3FFF           00023 REC_BYTE1       res     1       ; first byte that received bits are shifted into
01E7   3FFF           00024 REC_BYTE2       res     1       ; second byte that received bits are shifted into
01E8   3FFF           00025 COUNTER         res     1       ; used as counter in various loops
01E9   3FFF           00026 CONTADOR_2      res     1
01EA   3FFF           00027 BITS_IR         res     1
                      00028                 
Warning[205]: Found directive in column 1. (cblock)
                      00029 cblock
  0000003A            00030     BYTES:3
  0000003D            00031     CONTADOR
Warning[205]: Found directive in column 1. (ENDC)
                      00032 endc
                      00033 
                      00034 ;MACROS.
                      00035 ; if not(literal - 1 <= file <= literal + 1) goto toAdr
                      00036 bNotClose MACRO file, literal, toAdr
                      00037     movf file,W             ; move file to W
MPASM 5.86                   RECEPTOR_IR.ASM   8-21-2020  2:13:17         PAGE 23


LOC  OBJECT CODE     LINE SOURCE TEXT
  VALUE

                      00038     sublw literal + 1       ; if (literal + 1 - file < 0)
                      00039     bnc toAdr                ;   goto toAdr
                      00040     sublw 2                 ; if (1 + file - literal < 0)
                      00041     bnc toAdr                ;   goto toAdr
                      00042     ENDM
                      00043     
                      00044 ;Inicializa los pines de entrada y salida del microcontrolador.
01EB                  00045 IRsetup:
01EB   1683           00046     BSF STATUS, RP0 ;BANCO 1
01EC   1303           00047     BCF STATUS, RP1
Message[302]: Register in operand not in bank 0.  Ensure that bank bits are correct.
01ED   1008           00048     BCF TRISD, 0    ;RD0 -> PIN DE SALIDA DIGITAL.
01EE   1283           00049     BCF STATUS, RP0 ;BANCO 0
01EF   1008           00050     BCF PORTD, 0    ;INICIALIZAR EL PIN RD0 EN 0.
01F0   0008           00051     RETURN
                      00052     
                      00053 ;Saca una señal de 38MHz durante un tiempo (microsegundos).
                      00054 ;void IRcarrier(int microsegundos) 
01F1                  00055 IRcarrier:
01F1   00??           00056     MOVWF BITS_IR
01F2   3000           00057     MOVLW 0x00
01F3   00??           00058     MOVWF CONTADOR_2
01F4                  00059 BUCLE:
01F4   1408           00060     BSF PORTD,0
01F5   08??           00061     MOVFW CONTADOR_2
01F6   3E01           00062     ADDLW D'1'
01F7   00??           00063     MOVWF CONTADOR_2
01F8   02??           00064     SUBWF BITS_IR,W
01F9   1903           00065     BTFSC STATUS,Z
01FA   2???           00066     GOTO FINAL          
01FB   2???           00067     CALL RETARDO_13MICROS_16            
01FC   1008           00068     BCF PORTD,0
01FD   2???           00069     CALL RETARDO_13MICROS_16
01FE   2???           00070     GOTO BUCLE
01FF                  00071 FINAL:
01FF   1008           00072     BCF PORTD,0
0200   0008           00073     RETURN
                      00074     
                      00075 ;Manda una señal de acuerdo al protocolo NEC, 1 -> 2.25ms y 0 -> 1.25ms
                      00076 ;void IRsend(int dato)
0201                  00077 IRsend:
                      00078     
                      00079     
3FE2 3FFF             00037  END
MPASM 5.86                   RECEPTOR_IR.ASM   8-21-2020  2:13:17         PAGE 24


SYMBOL TABLE
  LABEL                             VALUE 

ABDEN                             00000000
ABDOVF                            00000007
ACKDT                             00000005
ACKEN                             00000004
ACKSTAT                           00000006
ADCON0                            0000001F
ADCON1                            0000009F
ADCS0                             00000006
ADCS1                             00000007
ADDEN                             00000003
ADFM                              00000007
ADIE                              00000006
ADIF                              00000006
ADON                              00000000
ADRESH                            0000001E
ADRESL                            0000009E
ANS0                              00000000
ANS1                              00000001
ANS10                             00000002
ANS11                             00000003
ANS12                             00000004
ANS13                             00000005
ANS2                              00000002
ANS3                              00000003
ANS4                              00000004
ANS5                              00000005
ANS6                              00000006
ANS7                              00000007
ANS8                              00000000
ANS9                              00000001
ANSEL                             00000188
ANSELH                            00000189
APAGAR_DISPLAY                    00000008
BAUDCTL                           00000187
BCLIE                             00000003
BCLIF                             00000003
BF                                00000000
BITS_IR                           000001EA
BRG0                              00000000
BRG1                              00000001
BRG10                             00000002
BRG11                             00000003
BRG12                             00000004
BRG13                             00000005
BRG14                             00000006
BRG15                             00000007
BRG16                             00000003
BRG2                              00000002
BRG3                              00000003
BRG4                              00000004
BRG5                              00000005
BRG6                              00000006
BRG7                              00000007
MPASM 5.86                   RECEPTOR_IR.ASM   8-21-2020  2:13:17         PAGE 25


SYMBOL TABLE
  LABEL                             VALUE 

BRG8                              00000000
BRG9                              00000001
BRGH                              00000002
BUCLE                             000001F4
BYTES                             0000003A
BYTE_READY                        00000000
C                                 00000000
C1CH0                             00000000
C1CH1                             00000001
C1IE                              00000005
C1IF                              00000005
C1OE                              00000005
C1ON                              00000007
C1OUT                             00000006
C1POL                             00000004
C1R                               00000002
C1RSEL                            00000005
C1SEN                             00000005
C2CH0                             00000000
C2CH1                             00000001
C2IE                              00000006
C2IF                              00000006
C2OE                              00000005
C2ON                              00000007
C2OUT                             00000006
C2POL                             00000004
C2R                               00000002
C2REN                             00000004
C2RSEL                            00000004
C2SYNC                            00000000
CCP1CON                           00000017
CCP1IE                            00000002
CCP1IF                            00000002
CCP1M0                            00000000
CCP1M1                            00000001
CCP1M2                            00000002
CCP1M3                            00000003
CCP1X                             00000005
CCP1Y                             00000004
CCP2CON                           0000001D
CCP2IE                            00000000
CCP2IF                            00000000
CCP2M0                            00000000
CCP2M1                            00000001
CCP2M2                            00000002
CCP2M3                            00000003
CCP2X                             00000005
CCP2Y                             00000004
CCPR1                             00000015
CCPR1H                            00000016
CCPR1L                            00000015
CCPR2                             0000001B
CCPR2H                            0000001C
MPASM 5.86                   RECEPTOR_IR.ASM   8-21-2020  2:13:17         PAGE 26


SYMBOL TABLE
  LABEL                             VALUE 

CCPR2L                            0000001B
CHS0                              00000002
CHS1                              00000003
CHS2                              00000004
CHS3                              00000005
CKE                               00000006
CKP                               00000004
CM1CON0                           00000107
CM2CON0                           00000108
CM2CON1                           00000109
COMPROBAR_OCUPADO                 00000174
CONTADOR                          0000003D
CONTADOR_2                        000001E9
COUNTER                           000001E8
CREN                              00000004
CSRC                              00000007
CURR_TIME                         000001E3
D                                 00000005
DATA_ADDRESS                      00000005
DATOS                             00000008
DC                                00000001
DC1B0                             00000004
DC1B1                             00000005
DC2B0                             00000004
DC2B1                             00000005
D_A                               00000005
D_NOT_A                           00000005
E                                 00000003
ECCPAS                            0000009C
ECCPAS0                           00000004
ECCPAS1                           00000005
ECCPAS2                           00000006
ECCPASE                           00000007
EEADR                             0000010D
EEADRH                            0000010F
EECON1                            0000018C
EECON2                            0000018D
EEDAT                             0000010C
EEDATA                            0000010C
EEDATH                            0000010E
EEIE                              00000004
EEIF                              00000004
EEPGD                             00000007
END_LENGTH                        0000000C
ESCRIBIR_CARACTER                 00000194
ESCRIBIR_COMANDO                  00000161
F                                 00000001
FERR                              00000002
FINAL                             000001FF
FSR                               00000004
FVREN                             00000000
GCEN                              00000007
GIE                               00000007
MPASM 5.86                   RECEPTOR_IR.ASM   8-21-2020  2:13:17         PAGE 27


SYMBOL TABLE
  LABEL                             VALUE 

GO                                00000001
GO_DONE                           00000001
GO_NOT_DONE                       00000001
HEADER_LENGTH                     00000018
HOME_INICIO                       00000002
HTS                               00000002
I2C_DATA                          00000005
I2C_READ                          00000002
I2C_START                         00000003
I2C_STOP                          00000004
INDF                              00000000
INICIALIZACION_DE_PANTALLA        000001AB
INTCON                            0000000B
INTE                              00000004
INTEDG                            00000006
INTF                              00000001
IOCB                              00000096
IOCB0                             00000000
IOCB1                             00000001
IOCB2                             00000002
IOCB3                             00000003
IOCB4                             00000004
IOCB5                             00000005
IOCB6                             00000006
IOCB7                             00000007
IRBIT                             00000004
IRCF0                             00000004
IRCF1                             00000005
IRCF2                             00000006
IRP                               00000007
IRPORT                            00000006
IRTRIS                            00000086
IR_FLAGS                          000001E2
IRcarrier                         000001F1
IRsend                            00000201
IRsetup                           000001EB
LIMPIAR_LCD                       00000001
LTS                               00000001
MC1OUT                            00000007
MC2OUT                            00000006
MOVER_CURSOR_DERECHA              00000014
MOVER_CURSOR_IZQ                  00000010
MOVER_PANTALLA_DERECHA            0000001C
MOVER_PANTALLA_IZQ                00000018
MSK                               00000093
MSK0                              00000000
MSK1                              00000001
MSK2                              00000002
MSK3                              00000003
MSK4                              00000004
MSK5                              00000005
MSK6                              00000006
MSK7                              00000007
MPASM 5.86                   RECEPTOR_IR.ASM   8-21-2020  2:13:17         PAGE 28


SYMBOL TABLE
  LABEL                             VALUE 

NOT_A                             00000005
NOT_ADDRESS                       00000005
NOT_BO                            00000000
NOT_BOR                           00000000
NOT_DONE                          00000001
NOT_PD                            00000003
NOT_POR                           00000001
NOT_RBPU                          00000007
NOT_RC8                           00000006
NOT_T1SYNC                        00000002
NOT_TO                            00000004
NOT_TX8                           00000006
NOT_W                             00000002
NOT_WRITE                         00000002
OERR                              00000001
OFF                               00000000
ON                                00000001
ONE_LENGTH                        0000000B
ON_DISPLAY_CURSOR_BLINK           0000000F
OPTION_REG                        00000081
OSCCON                            0000008F
OSCTUNE                           00000090
OSFIE                             00000007
OSFIF                             00000007
OSTS                              00000003
P                                 00000004
P1M0                              00000006
P1M1                              00000007
PCL                               00000002
PCLATH                            0000000A
PCON                              0000008E
PDC0                              00000000
PDC1                              00000001
PDC2                              00000002
PDC3                              00000003
PDC4                              00000004
PDC5                              00000005
PDC6                              00000006
PEIE                              00000006
PEN                               00000002
PIE1                              0000008C
PIE2                              0000008D
PINLCD                            00000008
PIR1                              0000000C
PIR2                              0000000D
PORTA                             00000005
PORTB                             00000006
PORTC                             00000007
PORTD                             00000008
PORTE                             00000009
PR2                               00000092
PREV                              00000001
PRSEN                             00000007
MPASM 5.86                   RECEPTOR_IR.ASM   8-21-2020  2:13:17         PAGE 29


SYMBOL TABLE
  LABEL                             VALUE 

PS0                               00000000
PS1                               00000001
PS2                               00000002
PSA                               00000003
PSSAC0                            00000002
PSSAC1                            00000003
PSSBD0                            00000000
PSSBD1                            00000001
PSTRCON                           0000009D
PULSE_TIME                        000001E4
PULSR                             00000002
PULSS                             00000003
PWM1CON                           0000009B
R                                 00000002
R1DECIMA_BUCLEEXTERNO             00000050
R1DECIMA_BUCLEEXTERNO2            0000004E
R1DECIMA_BUCLEINTERNO             00000052
R1MS_BUCLEEXTERNO                 0000003A
R1MS_BUCLEINTERNO                 0000003C
RA0                               00000000
RA1                               00000001
RA2                               00000002
RA3                               00000003
RA4                               00000004
RA5                               00000005
RA6                               00000006
RA7                               00000007
RB0                               00000000
RB1                               00000001
RB2                               00000002
RB3                               00000003
RB4                               00000004
RB5                               00000005
RB6                               00000006
RB7                               00000007
RBIE                              00000003
RBIF                              00000000
RC0                               00000000
RC1                               00000001
RC2                               00000002
RC3                               00000003
RC4                               00000004
RC5                               00000005
RC6                               00000006
RC7                               00000007
RC8_9                             00000006
RC9                               00000006
RCD8                              00000000
RCEN                              00000003
RCIDL                             00000006
RCIE                              00000005
RCIF                              00000005
RCREG                             0000001A
MPASM 5.86                   RECEPTOR_IR.ASM   8-21-2020  2:13:17         PAGE 30


SYMBOL TABLE
  LABEL                             VALUE 

RCSTA                             00000018
RCV                               00000002
RD                                00000000
RD0                               00000000
RD1                               00000001
RD2                               00000002
RD3                               00000003
RD4                               00000004
RD5                               00000005
RD6                               00000006
RD7                               00000007
RE0                               00000000
RE1                               00000001
RE2                               00000002
RE3                               00000003
READ_WRITE                        00000002
REC_BYTE1                         000001E6
REC_BYTE2                         000001E7
RETARDOMICROS                     00000026
RETARDOS_MS                       00000039
RETARDO_100MICROS                 00000020
RETARDO_100MS                     0000002C
RETARDO_10MICROS                  00000013
RETARDO_10MS                      00000032
RETARDO_10S                       00000044
RETARDO_12MICROS                  00000011
RETARDO_13MICROS_16               00000080
RETARDO_13MICROS_16_0             00000082
RETARDO_1DECIMA                   0000004D
RETARDO_1MS                       00000038
RETARDO_1S                        0000004A
RETARDO_200MICROS                 0000001D
RETARDO_200MS                     0000002A
RETARDO_20MICROS                  00000025
RETARDO_20MICROS_16               0000007B
RETARDO_20MICROS_16_0             0000007D
RETARDO_20MS                      00000030
RETARDO_20S                       00000042
RETARDO_2MS                       00000036
RETARDO_2S                        00000048
RETARDO_2S_16                     00000111
RETARDO_2S_16_0                   00000117
RETARDO_4MICROS                   00000019
RETARDO_500MICROS                 0000001A
RETARDO_500MICROS_16              0000005A
RETARDO_500MICROS_16_0            0000005E
RETARDO_500MS                     0000004C
RETARDO_500MS_16                  0000012F
RETARDO_500MS_16_0                00000135
RETARDO_50MICROS                  00000022
RETARDO_50MS                      0000002E
RETARDO_5MICROS                   00000018
RETARDO_5MS                       00000034
MPASM 5.86                   RECEPTOR_IR.ASM   8-21-2020  2:13:17         PAGE 31


SYMBOL TABLE
  LABEL                             VALUE 

RETARDO_5S                        00000046
RMICROS_BUCLE                     00000027
RP0                               00000005
RP1                               00000006
RS                                00000001
RSEN                              00000001
RW                                00000002
RX9                               00000006
RX9D                              00000000
R_CONTA                           00000000
R_CONTB                           00000001
R_CONTC                           00000002
R_NOT_W                           00000002
R_W                               00000002
Retardo_100micros                 00000070
Retardo_100micros_0               00000072
Retardo_100ms                     00000094
Retardo_100ms_0                   0000009A
Retardo_10ms                      000000B9
Retardo_10ms_0                    000000BD
Retardo_10s                       000000F3
Retardo_10s_0                     000000F9
Retardo_1ms                       000000DA
Retardo_1ms_0                     000000DE
Retardo_1s                        00000121
Retardo_1s_0                      00000127
Retardo_200micros                 00000065
Retardo_200micros_0               00000069
Retardo_200ms                     00000085
Retardo_200ms_0                   0000008B
Retardo_20ms                      000000AE
Retardo_20ms_0                    000000B2
Retardo_20s                       000000E5
Retardo_20s_0                     000000EB
Retardo_2ms                       000000CF
Retardo_2ms_0                     000000D3
Retardo_30s                       0000013C
Retardo_30s_0                     00000144
Retardo_50micros                  00000076
Retardo_50micros_0                00000078
Retardo_50ms                      000000A3
Retardo_50ms_0                    000000A7
Retardo_5ms                       000000C4
Retardo_5ms_0                     000000C8
Retardo_5s                        00000102
Retardo_5s_0                      00000108
Retardo_60s                       0000014E
Retardo_60s_0                     00000156
S                                 00000003
SALTO_ENTER                       000000C0
SBOREN                            00000004
SCKP                              00000004
SCS                               00000000
MPASM 5.86                   RECEPTOR_IR.ASM   8-21-2020  2:13:17         PAGE 32


SYMBOL TABLE
  LABEL                             VALUE 

SEN                               00000000
SENDB                             00000003
SETUP                             00000000
SMP                               00000007
SOLO_DISPLAY                      0000000C
SPACE_LENGTH                      00000006
SPACE_TIME                        000001E5
SPBRG                             00000099
SPBRGH                            0000009A
SPEN                              00000007
SR0                               00000006
SR1                               00000007
SRCON                             00000185
SREN                              00000005
SSPADD                            00000093
SSPBUF                            00000013
SSPCON                            00000014
SSPCON2                           00000091
SSPEN                             00000005
SSPIE                             00000003
SSPIF                             00000003
SSPM0                             00000000
SSPM1                             00000001
SSPM2                             00000002
SSPM3                             00000003
SSPMSK                            00000093
SSPOV                             00000006
SSPSTAT                           00000094
START                             0000000C
STATUS                            00000003
STRA                              00000000
STRB                              00000001
STRC                              00000002
STRD                              00000003
STRSYNC                           00000004
SWDTEN                            00000000
SYNC                              00000004
T0CS                              00000005
T0IE                              00000005
T0IF                              00000002
T0SE                              00000004
T1CKPS0                           00000004
T1CKPS1                           00000005
T1CON                             00000010
T1GINV                            00000007
T1GIV                             00000007
T1GSS                             00000001
T1INSYNC                          00000002
T1OSCEN                           00000003
T1SYNC                            00000002
T2CKPS0                           00000000
T2CKPS1                           00000001
T2CON                             00000012
MPASM 5.86                   RECEPTOR_IR.ASM   8-21-2020  2:13:17         PAGE 33


SYMBOL TABLE
  LABEL                             VALUE 

TMR0                              00000001
TMR0IE                            00000005
TMR0IF                            00000002
TMR1                              0000000E
TMR1CS                            00000001
TMR1GE                            00000006
TMR1H                             0000000F
TMR1IE                            00000000
TMR1IF                            00000000
TMR1L                             0000000E
TMR1ON                            00000000
TMR2                              00000011
TMR2IE                            00000001
TMR2IF                            00000001
TMR2ON                            00000002
TOUTPS0                           00000003
TOUTPS1                           00000004
TOUTPS2                           00000005
TOUTPS3                           00000006
TRISA                             00000085
TRISA0                            00000000
TRISA1                            00000001
TRISA2                            00000002
TRISA3                            00000003
TRISA4                            00000004
TRISA5                            00000005
TRISA6                            00000006
TRISA7                            00000007
TRISB                             00000086
TRISB0                            00000000
TRISB1                            00000001
TRISB2                            00000002
TRISB3                            00000003
TRISB4                            00000004
TRISB5                            00000005
TRISB6                            00000006
TRISB7                            00000007
TRISC                             00000087
TRISC0                            00000000
TRISC1                            00000001
TRISC2                            00000002
TRISC3                            00000003
TRISC4                            00000004
TRISC5                            00000005
TRISC6                            00000006
TRISC7                            00000007
TRISD                             00000088
TRISD0                            00000000
TRISD1                            00000001
TRISD2                            00000002
TRISD3                            00000003
TRISD4                            00000004
TRISD5                            00000005
MPASM 5.86                   RECEPTOR_IR.ASM   8-21-2020  2:13:17         PAGE 34


SYMBOL TABLE
  LABEL                             VALUE 

TRISD6                            00000006
TRISD7                            00000007
TRISE                             00000089
TRISE0                            00000000
TRISE1                            00000001
TRISE2                            00000002
TRISE3                            00000003
TRMT                              00000001
TUN0                              00000000
TUN1                              00000001
TUN2                              00000002
TUN3                              00000003
TUN4                              00000004
TX8_9                             00000006
TX9                               00000006
TX9D                              00000000
TXD8                              00000000
TXEN                              00000005
TXIE                              00000004
TXIF                              00000004
TXREG                             00000019
TXSTA                             00000098
UA                                00000001
ULPWUE                            00000005
ULPWUIE                           00000002
ULPWUIF                           00000002
VCFG0                             00000004
VCFG1                             00000005
VR0                               00000000
VR1                               00000001
VR2                               00000002
VR3                               00000003
VRCON                             00000097
VREN                              00000007
VROE                              00000006
VRR                               00000005
VRSS                              00000004
W                                 00000000
WCOL                              00000007
WDTCON                            00000105
WDTPS0                            00000001
WDTPS1                            00000002
WDTPS2                            00000003
WDTPS3                            00000004
WPUB                              00000095
WPUB0                             00000000
WPUB1                             00000001
WPUB2                             00000002
WPUB3                             00000003
WPUB4                             00000004
WPUB5                             00000005
WPUB6                             00000006
WPUB7                             00000007
MPASM 5.86                   RECEPTOR_IR.ASM   8-21-2020  2:13:17         PAGE 35


SYMBOL TABLE
  LABEL                             VALUE 

WR                                00000001
WREN                              00000002
WRERR                             00000003
WUE                               00000001
Z                                 00000002
ZERO_LENGTH                       00000006
_.org_0_005F                      0000005F
_.org_0_0062                      00000062
_.org_0_006A                      0000006A
_.org_0_006D                      0000006D
_.org_0_0074                      00000074
_.org_0_008C                      0000008C
_.org_0_008E                      0000008E
_.org_0_0091                      00000091
_.org_0_009B                      0000009B
_.org_0_009D                      0000009D
_.org_0_00A0                      000000A0
_.org_0_00A1                      000000A1
_.org_0_00A8                      000000A8
_.org_0_00AB                      000000AB
_.org_0_00B3                      000000B3
_.org_0_00B6                      000000B6
_.org_0_00BE                      000000BE
_.org_0_00C1                      000000C1
_.org_0_00C9                      000000C9
_.org_0_00CC                      000000CC
_.org_0_00D4                      000000D4
_.org_0_00D7                      000000D7
_.org_0_00DF                      000000DF
_.org_0_00E2                      000000E2
_.org_0_00EC                      000000EC
_.org_0_00EE                      000000EE
_.org_0_00FA                      000000FA
_.org_0_00FC                      000000FC
_.org_0_00FF                      000000FF
_.org_0_0109                      00000109
_.org_0_010B                      0000010B
_.org_0_010E                      0000010E
_.org_0_010F                      0000010F
_.org_0_0118                      00000118
_.org_0_011A                      0000011A
_.org_0_011D                      0000011D
_.org_0_011E                      0000011E
_.org_0_011F                      0000011F
_.org_0_0128                      00000128
_.org_0_012A                      0000012A
_.org_0_012D                      0000012D
_.org_0_0136                      00000136
_.org_0_0138                      00000138
_.org_0_0145                      00000145
_.org_0_0147                      00000147
_.org_0_0149                      00000149
_.org_0_0157                      00000157
MPASM 5.86                   RECEPTOR_IR.ASM   8-21-2020  2:13:17         PAGE 36


SYMBOL TABLE
  LABEL                             VALUE 

_.org_0_0159                      00000159
_.org_0_015B                      0000015B
_.org_0_015E                      0000015E
_.org_0_015F                      0000015F
_BOR21V                           00003EFF
_BOR40V                           00003FFF
_BOR4V_BOR21V                     00003EFF
_BOR4V_BOR40V                     00003FFF
_BOREN_NSLEEP                     00003EFF
_BOREN_OFF                        00003CFF
_BOREN_ON                         00003FFF
_BOREN_SBODEN                     00003DFF
_BOR_NSLEEP                       00003EFF
_BOR_OFF                          00003CFF
_BOR_ON                           00003FFF
_BOR_SBODEN                       00003DFF
_CONFIG1                          00002007
_CONFIG2                          00002008
_CPD_OFF                          00003FFF
_CPD_ON                           00003F7F
_CP_OFF                           00003FFF
_CP_ON                            00003FBF
_DEBUG_OFF                        00003FFF
_DEBUG_ON                         00001FFF
_DEVID1                           00002006
_EC_OSC                           00003FFB
_EXTRC                            00003FFF
_EXTRCIO                          00003FFE
_EXTRC_OSC_CLKOUT                 00003FFF
_EXTRC_OSC_NOCLKOUT               00003FFE
_FCMEN_OFF                        000037FF
_FCMEN_ON                         00003FFF
_FOSC_EC                          00003FFB
_FOSC_EXTRC_CLKOUT                00003FFF
_FOSC_EXTRC_NOCLKOUT              00003FFE
_FOSC_HS                          00003FFA
_FOSC_INTRC_CLKOUT                00003FFD
_FOSC_INTRC_NOCLKOUT              00003FFC
_FOSC_LP                          00003FF8
_FOSC_XT                          00003FF9
_HS_OSC                           00003FFA
_IDLOC0                           00002000
_IDLOC1                           00002001
_IDLOC2                           00002002
_IDLOC3                           00002003
_IESO_OFF                         00003BFF
_IESO_ON                          00003FFF
_INTOSC                           00003FFD
_INTOSCIO                         00003FFC
_INTRC_OSC_CLKOUT                 00003FFD
_INTRC_OSC_NOCLKOUT               00003FFC
_LP_OSC                           00003FF8
_LVP_OFF                          00002FFF
MPASM 5.86                   RECEPTOR_IR.ASM   8-21-2020  2:13:17         PAGE 37


SYMBOL TABLE
  LABEL                             VALUE 

_LVP_ON                           00003FFF
_MCLRE_OFF                        00003FDF
_MCLRE_ON                         00003FFF
_PWRTE_OFF                        00003FFF
_PWRTE_ON                         00003FEF
_WDTE_OFF                         00003FF7
_WDTE_ON                          00003FFF
_WDT_OFF                          00003FF7
_WDT_ON                           00003FFF
_WRT_1FOURTH                      00003BFF
_WRT_256                          00003DFF
_WRT_HALF                         000039FF
_WRT_OFF                          00003FFF
_XT_OSC                           00003FF9
__16F887                          00000001
bNotClose                         
caractertemp                      00000039
memocaracter                      00000037
memoriaw                          00000038
r1                                00000003
r10                               0000000D
r11                               0000000E
r12                               0000000F
r13                               00000010
r14                               00000011
r15                               00000012
r16                               00000013
r17                               00000014
r18                               00000015
r19                               00000016
r2                                00000004
r20                               00000017
r21                               00000018
r22                               00000019
r23                               0000001A
r24                               0000001B
r25                               0000001C
r26                               0000001D
r27                               0000001E
r28                               0000001F
r29                               00000020
r3                                00000005
r30                               00000021
r31                               00000022
r32                               00000023
r33                               00000024
r34                               00000025
r35                               00000026
r36                               00000027
r37                               00000028
r38                               00000029
r39                               0000002A
r4                                00000006
MPASM 5.86                   RECEPTOR_IR.ASM   8-21-2020  2:13:17         PAGE 38


SYMBOL TABLE
  LABEL                             VALUE 

r40                               0000002B
r41                               0000002C
r42                               0000002D
r43                               0000002E
r44                               0000002F
r45                               00000030
r46                               00000031
r47                               00000032
r48                               00000033
r49                               00000034
r5                                00000007
r50                               00000035
r51                               00000036
r52                               0000000A
r6                                00000008
r7                                00000009
r8                                0000000B
r9                                0000000C

Errors   :     0
Warnings :     4 reported,     0 suppressed
Messages :     8 reported,     0 suppressed

