MPASM 5.86                       RX_628A.ASM   9-16-2020  21:39:30         PAGE  1


LOC  OBJECT CODE     LINE SOURCE TEXT
  VALUE

                      00001  LIST P=16F628A
Warning[215]: Processor superseded by command line.  Verify processor symbol.
                      00002  PROCESSOR P16F628A
                      00003  #INCLUDE<P16F628A.INC>
                      00001         LIST
                      00002 
                      00003 ;==========================================================================
                      00004 ; Build date : Oct 24 2019
                      00005 ;  MPASM PIC16F628A processor include
                      00006 ; 
                      00007 ;  (c) Copyright 1999-2019 Microchip Technology, All rights reserved
                      00008 ;==========================================================================
                      00009 
                      00386         LIST
                      00004 ; CONFIG
                      00005 ; __config 0xFF42
2007   3F42           00006  __CONFIG _FOSC_HS & _WDTE_OFF & _PWRTE_ON & _MCLRE_OFF & _BOREN_ON & _LVP_OFF & _CPD_OFF & _CP_OFF
                      00007  
  00000055            00008 CAMBIO_COLOR EQU 0x55
  000000AA            00009 CAMBIO_BRILLO EQU 0xAA
  00000033            00010 MODO_AUTO EQU 0x33
                      00011  
                      00012  CBLOCK 0x20
  00000020            00013     R_CONTA
  00000021            00014     R_CONTB
                      00015  ENDC
                      00016  
                      00017  ORG 0
0000                  00018 SETUP:
0000   1683           00019     BSF STATUS,RP0
0001   1303           00020     BCF STATUS,RP1      ;BANCO 1.
0002   3072           00021     MOVLW B'01110010'   ;BOTONES, ;SALIDA TX -> B2, ENTRADA RX -> B1.
Message[302]: Register in operand not in bank 0.  Ensure that bank bits are correct.
0003   0086           00022     MOVWF TRISB
0004   3024           00023     MOVLW B'00100100'
Message[302]: Register in operand not in bank 0.  Ensure that bank bits are correct.
0005   0098           00024     MOVWF TXSTA
0006   30CF           00025     MOVLW D'207'        ;2400 BAUDIOS.
Message[302]: Register in operand not in bank 0.  Ensure that bank bits are correct.
0007   0099           00026     MOVWF SPBRG
0008   1283           00027     BCF STATUS,RP0      ;BANCO 0.
0009   3007           00028     MOVLW 0x07
000A   009F           00029     MOVWF CMCON         ;APAGA LOS COMPARADORES.
000B   3090           00030     MOVLW B'10010000'
000C   0098           00031     MOVWF RCSTA
000D                  00032 PROGRAMA:
000D   1A06           00033     BTFSC PORTB,4
000E   2???           00034     GOTO CAMBIO_RGB
000F   1A86           00035     BTFSC PORTB,5
0010   2???           00036     GOTO CAMBIO_PWM
0011   1B06           00037     BTFSC PORTB,6
0012   2???           00038     GOTO CAMBIO_AUTO
0013   2???           00039     GOTO PROGRAMA 
MPASM 5.86                       RX_628A.ASM   9-16-2020  21:39:30         PAGE  2


LOC  OBJECT CODE     LINE SOURCE TEXT
  VALUE

                      00040 
0014                  00041 CAMBIO_RGB:
0014   1A06           00042     BTFSC PORTB,4
0015   2???           00043     GOTO CAMBIO_RGB
0016   3055           00044     MOVLW CAMBIO_COLOR
0017   0099           00045     MOVWF TXREG
0018   2???           00046     CALL RETARDO_20MS
0019   2???           00047     GOTO PROGRAMA
                      00048     
001A                  00049 CAMBIO_PWM:
001A   1A86           00050     BTFSC PORTB,5
001B   2???           00051     GOTO CAMBIO_PWM
001C   30AA           00052     MOVLW CAMBIO_BRILLO
001D   0099           00053     MOVWF TXREG
001E   2???           00054     CALL RETARDO_20MS
001F   2???           00055     GOTO PROGRAMA
                      00056     
0020                  00057 CAMBIO_AUTO:
0020   1B06           00058     BTFSC PORTB,6
0021   2???           00059     GOTO CAMBIO_AUTO
0022   3033           00060     MOVLW MODO_AUTO
0023   0099           00061     MOVWF TXREG
0024   2???           00062     CALL RETARDO_20MS
0025   2???           00063     GOTO PROGRAMA
                      00064 
0026                  00065 RETARDO_20MS:                           ; La llamada "call" aporta 2 ciclos máquina.
0026   300A           00066     MOVLW       D'10'                   ; Aporta 1 ciclo máquina. Este es el valor de "M".
0027   00A1           00067     MOVWF       R_CONTB                 ; Aporta 1 ciclo máquina.
0028                  00068 R1MS_BUCLEEXTERNO:
0028   30F9           00069     MOVLW       D'249'                  ; Aporta Mx1 ciclos máquina. Este es el valor de "K".   
0029   00A0           00070     MOVWF       R_CONTA                 ; Aporta Mx1 ciclos máquina.
002A                  00071 R1MS_BUCLEINTERNO:
002A   0000           00072     NOP                         ; Aporta KxMx1 ciclos máquina.
002B   0BA0           00073     DECFSZ      R_CONTA,F               ; (K-1)xMx1 cm (cuando no salta) + Mx2 cm (al saltar).
002C   2???           00074     GOTO        R1MS_BUCLEINTERNO       ; Aporta (K-1)xMx2 ciclos máquina.
002D   0BA1           00075     DECFSZ      R_CONTB,F               ; (M-1)x1 cm (cuando no salta) + 2 cm (al saltar).
002E   2???           00076     GOTO        R1MS_BUCLEEXTERNO       ; Aporta (M-1)x2 ciclos máquina.
002F   0008           00077     RETURN
3F42                  00078     END
MPASM 5.86                       RX_628A.ASM   9-16-2020  21:39:30         PAGE  3


SYMBOL TABLE
  LABEL                             VALUE 

ADDEN                             00000003
ADEN                              00000003
BRGH                              00000002
C                                 00000000
C1INV                             00000004
C1OUT                             00000006
C2INV                             00000005
C2OUT                             00000007
CAMBIO_AUTO                       00000020
CAMBIO_BRILLO                     000000AA
CAMBIO_COLOR                      00000055
CAMBIO_PWM                        0000001A
CAMBIO_RGB                        00000014
CCP1CON                           00000017
CCP1IE                            00000002
CCP1IF                            00000002
CCP1M0                            00000000
CCP1M1                            00000001
CCP1M2                            00000002
CCP1M3                            00000003
CCP1X                             00000005
CCP1Y                             00000004
CCPR1                             00000015
CCPR1H                            00000016
CCPR1L                            00000015
CIS                               00000003
CM0                               00000000
CM1                               00000001
CM2                               00000002
CMCON                             0000001F
CMIE                              00000006
CMIF                              00000006
CREN                              00000004
CSRC                              00000007
DATA_CP_OFF                       00003FFF
DATA_CP_ON                        00003EFF
DC                                00000001
EEADR                             0000009B
EECON1                            0000009C
EECON2                            0000009D
EEDATA                            0000009A
EEIE                              00000007
EEIF                              00000007
F                                 00000001
FERR                              00000002
FSR                               00000004
GIE                               00000007
INDF                              00000000
INTCON                            0000000B
INTE                              00000004
INTEDG                            00000006
INTF                              00000001
IRP                               00000007
MPASM 5.86                       RX_628A.ASM   9-16-2020  21:39:30         PAGE  4


SYMBOL TABLE
  LABEL                             VALUE 

MODO_AUTO                         00000033
NOT_BO                            00000000
NOT_BOD                           00000000
NOT_BOR                           00000000
NOT_PD                            00000003
NOT_POR                           00000001
NOT_RBPU                          00000007
NOT_T1SYNC                        00000002
NOT_TO                            00000004
OERR                              00000001
OPTION_REG                        00000081
OSCF                              00000003
PCL                               00000002
PCLATH                            0000000A
PCON                              0000008E
PEIE                              00000006
PIE1                              0000008C
PIR1                              0000000C
PORTA                             00000005
PORTB                             00000006
PR2                               00000092
PROGRAMA                          0000000D
PS0                               00000000
PS1                               00000001
PS2                               00000002
PSA                               00000003
R1MS_BUCLEEXTERNO                 00000028
R1MS_BUCLEINTERNO                 0000002A
RA0                               00000000
RA1                               00000001
RA2                               00000002
RA3                               00000003
RA4                               00000004
RA5                               00000005
RA6                               00000006
RA7                               00000007
RB0                               00000000
RB1                               00000001
RB2                               00000002
RB3                               00000003
RB4                               00000004
RB5                               00000005
RB6                               00000006
RB7                               00000007
RBIE                              00000003
RBIF                              00000000
RCIE                              00000005
RCIF                              00000005
RCREG                             0000001A
RCSTA                             00000018
RD                                00000000
RETARDO_20MS                      00000026
RP0                               00000005
MPASM 5.86                       RX_628A.ASM   9-16-2020  21:39:30         PAGE  5


SYMBOL TABLE
  LABEL                             VALUE 

RP1                               00000006
RX9                               00000006
RX9D                              00000000
R_CONTA                           00000020
R_CONTB                           00000021
SETUP                             00000000
SPBRG                             00000099
SPEN                              00000007
SREN                              00000005
STATUS                            00000003
SYNC                              00000004
T0CS                              00000005
T0IE                              00000005
T0IF                              00000002
T0SE                              00000004
T1CKPS0                           00000004
T1CKPS1                           00000005
T1CON                             00000010
T1OSCEN                           00000003
T2CKPS0                           00000000
T2CKPS1                           00000001
T2CON                             00000012
TMR0                              00000001
TMR0IE                            00000005
TMR0IF                            00000002
TMR1                              0000000E
TMR1CS                            00000001
TMR1H                             0000000F
TMR1IE                            00000000
TMR1IF                            00000000
TMR1L                             0000000E
TMR1ON                            00000000
TMR2                              00000011
TMR2IE                            00000001
TMR2IF                            00000001
TMR2ON                            00000002
TOUTPS0                           00000003
TOUTPS1                           00000004
TOUTPS2                           00000005
TOUTPS3                           00000006
TRISA                             00000085
TRISA0                            00000000
TRISA1                            00000001
TRISA2                            00000002
TRISA3                            00000003
TRISA4                            00000004
TRISA5                            00000005
TRISA6                            00000006
TRISA7                            00000007
TRISB                             00000086
TRISB0                            00000000
TRISB1                            00000001
TRISB2                            00000002
MPASM 5.86                       RX_628A.ASM   9-16-2020  21:39:30         PAGE  6


SYMBOL TABLE
  LABEL                             VALUE 

TRISB3                            00000003
TRISB4                            00000004
TRISB5                            00000005
TRISB6                            00000006
TRISB7                            00000007
TRMT                              00000001
TX9                               00000006
TX9D                              00000000
TXEN                              00000005
TXIE                              00000004
TXIF                              00000004
TXREG                             00000019
TXSTA                             00000098
VR0                               00000000
VR1                               00000001
VR2                               00000002
VR3                               00000003
VRCON                             0000009F
VREN                              00000007
VROE                              00000006
VRR                               00000005
W                                 00000000
WR                                00000001
WREN                              00000002
WRERR                             00000003
Z                                 00000002
_BODEN_OFF                        00003FBF
_BODEN_ON                         00003FFF
_BOREN_OFF                        00003FBF
_BOREN_ON                         00003FFF
_CONFIG                           00002007
_CPD_OFF                          00003FFF
_CPD_ON                           00003EFF
_CP_OFF                           00003FFF
_CP_ON                            00001FFF
_DEVID1                           00002006
_ER_OSC_CLKOUT                    00003FFF
_ER_OSC_NOCLKOUT                  00003FFE
_EXTCLK_OSC                       00003FEF
_FOSC_ECIO                        00003FEF
_FOSC_EXTRCCLK                    00003FFF
_FOSC_EXTRCIO                     00003FFE
_FOSC_HS                          00003FEE
_FOSC_INTOSCCLK                   00003FFD
_FOSC_INTOSCIO                    00003FFC
_FOSC_LP                          00003FEC
_FOSC_XT                          00003FED
_HS_OSC                           00003FEE
_IDLOC0                           00002000
_IDLOC1                           00002001
_IDLOC2                           00002002
_IDLOC3                           00002003
_INTOSC_OSC_CLKOUT                00003FFD
MPASM 5.86                       RX_628A.ASM   9-16-2020  21:39:30         PAGE  7


SYMBOL TABLE
  LABEL                             VALUE 

_INTOSC_OSC_NOCLKOUT              00003FFC
_INTRC_OSC_CLKOUT                 00003FFD
_INTRC_OSC_NOCLKOUT               00003FFC
_LP_OSC                           00003FEC
_LVP_OFF                          00003F7F
_LVP_ON                           00003FFF
_MCLRE_OFF                        00003FDF
_MCLRE_ON                         00003FFF
_PWRTE_OFF                        00003FFF
_PWRTE_ON                         00003FF7
_RC_OSC_CLKOUT                    00003FFF
_RC_OSC_NOCLKOUT                  00003FFE
_WDTE_OFF                         00003FFB
_WDTE_ON                          00003FFF
_WDT_OFF                          00003FFB
_WDT_ON                           00003FFF
_XT_OSC                           00003FED
__16F628A                         00000001

Errors   :     0
Warnings :     1 reported,     0 suppressed
Messages :     3 reported,     0 suppressed

