MPASM 5.86                      RECEPTOR.ASM   9-22-2020  11:55:59         PAGE  1


LOC  OBJECT CODE     LINE SOURCE TEXT
  VALUE

                      00001 #INCLUDE <P16F887.INC>
                      00001         LIST
                      00002 
                      00003 ;==========================================================================
                      00004 ; Build date : Oct 24 2019
                      00005 ;  MPASM PIC16F887 processor include
                      00006 ; 
                      00007 ;  (c) Copyright 1999-2019 Microchip Technology, All rights reserved
                      00008 ;==========================================================================
                      00009 
                      00810         LIST
Warning[205]: Found directive in column 1. (LIST)
                      00002 LIST P=16F887
                      00003 #INCLUDE <MACROS.INC>
  00000005            00001 puertoa EQU PORTA
  00000006            00002 puertob EQU PORTB
  00000007            00003 puertoc EQU PORTC
  00000008            00004 puertod EQU PORTD
  00000009            00005 puertoe EQU PORTE
                      00006 
                      00007 ;-------------------------------- MACRO PINES ----------------------------------
                      00008 ON MACRO PIN,PORT
                      00009         BSF PORT,PIN
                      00010         ENDM
                      00011 OFF MACRO PIN,PORT
                      00012         BCF PORT,PIN
                      00013         ENDM
                      00014 SETF MACRO REG0
                      00015         MOVLW D'255'
                      00016         MOVWF REG0
                      00017         ENDM
                      00018 
                      00019 ;--------------------------------- MACRO REG -----------------------------------
                      00020 MOV_VAL MACRO VALUE,REG
                      00021         MOVLW VALUE
                      00022         MOVWF REG
                      00023         ENDM
                      00024 
                      00025 COPY_REG MACRO REG_SRC,REG_DEST
                      00026         MOVF REG_SRC,0
                      00027         MOVWF REG_DEST
                      00028         ENDM
                      00029 
                      00030 ;--------------------------------- MACRO REG -----------------------------------
                      00031 SEL_BANK MACRO NO_BANK
                      00032         IF NO_BANK==0
                      00033         BCF STATUS, RP0
                      00034         BCF STATUS, RP1
                      00035         ENDIF
                      00036 
                      00037         IF NO_BANK==1
                      00038         BSF STATUS, RP0
                      00039         BCF STATUS, RP1
MPASM 5.86                      RECEPTOR.ASM   9-22-2020  11:55:59         PAGE  2


LOC  OBJECT CODE     LINE SOURCE TEXT
  VALUE

                      00040         ENDIF
                      00041 
                      00042         IF NO_BANK==2
                      00043         BCF STATUS, RP0
                      00044         BSF STATUS, RP1
                      00045         ENDIF
                      00046 
                      00047         IF NO_BANK==3
                      00048         BSF STATUS, RP0
                      00049         BSF STATUS, RP1
                      00050         ENDIF
                      00051         ENDM
                      00052 
                      00053 ;----------------------------- REG COMPARE EQUAL -------------------------------
                      00054 REG_EQUAL_JMP MACRO REG1,REG2,LABEL
                      00055         MOVF    REG2,0
                      00056         SUBWF   REG1,0
                      00057         BTFSC   STATUS,Z
                      00058         GOTO    LABEL
                      00059         ENDM
                      00060 ;---------------------------- REG COMPARE !EQUAL -------------------------------
                      00061 REG_NE_JMP MACRO REG1,REG2,LABEL
                      00062         MOVF    REG2,0
                      00063         SUBWF   REG1,0
                      00064         BTFSC   STATUS,Z
                      00065         GOTO    LABEL
                      00066         ENDM
                      00067 
                      00068 ;-------------------------- REG COMPARE EQUAL VALUE ----------------------------
                      00069 REG_VAL_EQ_JMP MACRO REG1,VAL,DIR
                      00070         MOVLW   VAL
                      00071         SUBWF   REG1,0
                      00072         BTFSC   STATUS,Z
                      00073         GOTO    DIR
                      00074         ENDM
                      00075         
                      00076 ;------------------------- REG COMPARE EQUAL !VALUE ----------------------------
                      00077 REG_VAL_NEQ_JMP MACRO REG1,VAL,DIR
                      00078         MOVLW VAL
                      00079         SUBWF REG1,0
                      00080         BTFSS STATUS,Z
                      00081         GOTO DIR
                      00082         ENDM
                      00083 
                      00084 ; Compara registro con un valor y si  se cumple la condicion Reg>valor se va a la subrutina
                      00085 mayorque macro registro1,valor ,subrutina
                      00086                 MOVLW valor
                      00087                 SUBWF registro1,0
                      00088                 BTFSC STATUS,C
                      00089                 GOTO subrutina
Warning[205]: Found directive in column 1. (endm)
                      00090 endm
                      00091 ; Compara registro con un valor y si  se cumple la condicion Reg<valor se va a la subrutina
MPASM 5.86                      RECEPTOR.ASM   9-22-2020  11:55:59         PAGE  3


LOC  OBJECT CODE     LINE SOURCE TEXT
  VALUE

                      00092 menorque macro registro1,valor ,subrutina
                      00093                 MOVLW valor
                      00094                 SUBWF registro1,0
                      00095                 BTFSS STATUS,C
                      00096                 GOTO subrutina
Warning[205]: Found directive in column 1. (endm)
                      00097 endm
                      00098 ; Compara registro con un valor y si se cumple la condicion Reg>Reg2se va a la subrutina
                      00099 mayorquereg macro registro1,registro2 ,subrutina
                      00100                 MOVF registro2,0
                      00101                 SUBWF registro1,0
                      00102                 BTFSC STATUS,C
                      00103                 GOTO subrutina
Warning[205]: Found directive in column 1. (endm)
                      00104 endm
                      00105 ; Compara registro con un valor y si se cumple la condicion Reg<Reg2 se va a la subrutina
                      00106 menorquereg macro registro1,registro2,subrutina
                      00107                 MOVF registro2,0
                      00108                 SUBWF registro1,0
                      00109                 BTFSS STATUS,C
                      00110                 GOTO subrutina
Warning[205]: Found directive in column 1. (endm)
                      00111 endm
                      00112 
                      00113 ; /////////////////////////////////// Para display 7 segmentos //////////////////////////////
                      00114 enviaradisplay macro numnum
                      00115         MOVLW numnum
                      00116         CALL TABLAANODO
                      00117         MOVWF PORTD
Warning[205]: Found directive in column 1. (endm)
                      00118 endm
                      00119         
                      00120 enviarcdisplay macro numnum
                      00121         MOVLW numnum
                      00122         CALL TABLACATODO
                      00123         MOVWF PORTD
Warning[205]: Found directive in column 1. (endm)
                      00124 endm
                      00125 
                      00126 registroadisplay macro numnum
                      00127         MOVF numnum,0
                      00128         CALL TABLAANODO
                      00129         MOVWF PORTD
Warning[205]: Found directive in column 1. (endm)
                      00130 endm
                      00131 
                      00132 registrocdisplay macro numnum
                      00133         MOVF numnum,0
                      00134         CALL TABLACATODO
                      00135         MOVWF PORTD
Warning[205]: Found directive in column 1. (endm)
                      00136 endm
                      00137 ;...............................................///////////////////////////////////.....................
MPASM 5.86                      RECEPTOR.ASM   9-22-2020  11:55:59         PAGE  4


LOC  OBJECT CODE     LINE SOURCE TEXT
  VALUE

                            ..../////////////////////////
                      00138 on_lib_retardos_ms macro
                      00139         CALL CONFTMR0TEMP
Warning[205]: Found directive in column 1. (endm)
                      00140 endm
                      00141 
                      00142 retardo_ms macro valor
                      00143         MOVLW valor
                      00144         CALL RETARDOLIBRE_mS
Warning[205]: Found directive in column 1. (endm)
                      00145 endm
                      00146 
                      00147 ;Conversor de Binario a BCD. La respuesta se guarda en registros bcd_unidad, bcd_decena, bcd_centena
                      00148 BCD_CONVERT MACRO REG
                      00149         MOVF REG,0
                      00150         CALL BINARIO_BCD
                      00151     ENDM
                      00152 
                      00153 ;Codigo de macro para Retardos
                      00154 milisegundo      macro X
                      00155                          movlw X
                      00156                          call  milisegundos
                      00157                          endm
                      00158 segundo          macro X
                      00159                          movlw X
                      00160                          call  segundos
                      00161                          endm
                      00162 ;//////////////////////////////////////////////////////////////////////////////
                      00163 ; Macro para LCD Información sobre comandos en www.rodrigocarita.com
                      00164 ; Para controlar la pantalla LCD 2x16
                      00165 
                      00166 LCD_INIT MACRO                  ;Con esto desarrollamos la secuencia de inicio               
                      00167         CALL  Inicio_lcd
                      00168         ENDM
                      00169 WRITE_LCD MACRO CHAR            ;Con este comando enviaremos un caracter a la pantalla
                      00170         MOVLW CHAR
                      00171         CALL  ESCRIBIRCARACTER  ;Subrutina en la librería que me permite enviar el caracter
                      00172         ENDM
                      00173 WRITE_LCD_REG MACRO REG4        ;Con este comando enviaremos el valor de un registro a la pantalla
                      00174         MOVLW .48
                      00175         ADDWF REG4,0
                      00176         CALL  ESCRIBIRCARACTER   ;Subrutina en la librería que me permite enviar el valor
                      00177         ENDM
                      00178 WRITE_LCD_REG_HEX MACRO REG4    ;Con este comando enviaremos el valor de un registro a la pantalla
                      00179         MOVLW .55
                      00180         ADDWF REG4,0
                      00181         CALL  ESCRIBIRCARACTER   ;Subrutina en la librería que me permite enviar el valor
                      00182         ENDM
                      00183 escribirregistro macro regREG3d     ;Subrutina para escribir en el LCD registro de 3 dígitos
                      00184                    MOVF regREG3d,0
                      00185                    CALL PARAESCR1B1RREGISTRO
Warning[205]: Found directive in column 1. (endm)
                      00186 endm
MPASM 5.86                      RECEPTOR.ASM   9-22-2020  11:55:59         PAGE  5


LOC  OBJECT CODE     LINE SOURCE TEXT
  VALUE

                      00187 escribirmensaje macro
                      00188                         CLRF indice
                      00189                         SEcuENCIASUBcar1
                      00190                         MOVF indice,0
                      00191                         CALL aasdd
                      00192                         MOVWF NumCadena
                      00193                         csi NumCadena,.255,FUERALIM1T3
                      00194                         MOVF NumCadena,0
                      00195                         call  ESCRIBIRCARACTER
                      00196                         INCF indice,1
                      00197                         GOTO SEcuENCIASUBcar1
                      00198     ENDM           
                      00199            
                      00200 ;Aquí las macros para manipulación del cursor //////////////////////////////////////////
                      00201 CURSOR_ON MACRO
                      00202         MOVLW on_display_cursor_blink ;Enciende el cursor y su parpadeo
                      00203         CALL  ESCRIBIRCOMANDO
                      00204     ENDM
                      00205 CURSOR_OFF MACRO
                      00206         MOVLW solo_display        ;Apaga el cursor y muestra solamente el display
                      00207         CALL  ESCRIBIRCOMANDO
                      00208     ENDM
                      00209 CURSOR_LEFT MACRO
                      00210         MOVLW mover_cursor_izquierda ;Mueve el cursor a la derecha
                      00211         call  ESCRIBIRCOMANDO
                      00212     ENDM
                      00213 cursor_derecha macro
                      00214                 movlw mover_cursor_derecha ;Mueve el cursor a la izquierda
                      00215         call  ESCRIBIRCOMANDO
                      00216                 endm
                      00217            
                      00218 fila_enter     macro    ;Saltará de línea a la segunda fila
                      00219            movlw salto_enter
                      00220            call  ESCRIBIRCOMANDO
Warning[205]: Found directive in column 1. (endm)
                      00221 endm
                      00222 ORIGIN_LCD macro
                      00223                 movlw home_inicio
                      00224                 call ESCRIBIRCOMANDO
Warning[205]: Found directive in column 1. (endm)
                      00225 endm
                      00226 ;//////////////////////////////////////////////////////
                      00227 ;//////////////////////////////////////// creado para la escritura en LCD mediante textos predeterminado
                            s.///////////
                      00228 mensaje macro  x
                      00229         if x==.1
                      00230         call SubirCarActer1
                      00231         endif
                      00232         if x==.2
                      00233         call SubirCarActer2
                      00234         endif
                      00235                 if x==.3
                      00236         call SubirCarActer3
MPASM 5.86                      RECEPTOR.ASM   9-22-2020  11:55:59         PAGE  6


LOC  OBJECT CODE     LINE SOURCE TEXT
  VALUE

                      00237         endif
                      00238                 if x==.4
                      00239         call SubirCarActer4
                      00240         endif
                      00241                 if x==.5
                      00242         call SubirCarActer5
                      00243         endif
                      00244                 if x==.6
                      00245         call SubirCarActer6
                      00246         endif
                      00247                 if x>.6
                      00248                 ERROR "No hay mensaje predeterminado para el valor"
                      00249                 MESSG "Revisa el comando mensjae .x"
                      00250                 endif
                      00251         endm
                      00252 
                      00253 ;Se pueden agregar más, respetando la estructura de condicionales
                      00254 
                      00255 ;/////////////////////////////////////////////////////////////////////////////////////
                      00256 
                      00257 
                      00258 
                      00259 ;\\\\\\\\\\\\\\\\\\\\\\\\\\\\\\\\\\\\\\\\\\\\\\\\\\\\\\\\\\\\\\\\\\\\\\\\\\\\\\\\\\\\\\\\\\\\\\\\\\\\\\\
                            \
                      00260 ;\\\\\\\\\\\\\\\\\\\\\Manipulación del cursor solamente para pantallas de 20x4 /////////////////////////
                            ///
                      00261 ;\\\\\\\\\\\\\\\\\\\\\\\\\\\\\\\\\\\\\\\\\\\\\\\\\\\\\\\\\\\\\\\\\\\\\\\\\\\\\\\\\\
                      00262 
                      00263 ir_a_fila macro filaseleccionada
                      00264 
                      00265         if filaseleccionada==1
                      00266                 movlw home_inicio
                      00267                 call ESCRIBIRCOMANDO
                      00268         endif
                      00269         if filaseleccionada==2
                      00270                 movlw home_inicio
                      00271                 call ESCRIBIRCOMANDO
                      00272                 movlw salto_enter
                      00273         call ESCRIBIRCOMANDO
                      00274         endif
                      00275         if filaseleccionada==3
                      00276                 movlw 0x94
                      00277                 call ESCRIBIRCOMANDO
                      00278         endif
                      00279         if filaseleccionada==4
                      00280                 movlw 0xD4
                      00281                 call ESCRIBIRCOMANDO
                      00282         endif
                      00283         if filaseleccionada>4
                      00284                 ERROR "Has sobrepasado la cantidad de filas a usar"
                      00285                 MESSG "Revisa el comando ir_a_fila que el valor sea"
                      00286                 MESSG "de 1 a 4 solamente."
                      00287         endif
MPASM 5.86                      RECEPTOR.ASM   9-22-2020  11:55:59         PAGE  7


LOC  OBJECT CODE     LINE SOURCE TEXT
  VALUE

Warning[205]: Found directive in column 1. (endm)
                      00288 endm
                      00289 
                      00290 
                      00291 ; ///////////////////////Comando adicional /////////////////////////////////////////////////////////////
                            ///////////
                      00292 ;/////////////////////////////Para ir a un punto especifico del LCD ////////////////////////////////////
                            //////////
                      00293 ;/////////////////////////////////Solo para LCD20x4 ////////////////////////////////////////////////////
                            //////////
                      00294 lcdfc macro lcdvalorf,lcdvalorc
                      00295 
                      00296         ;/// Para seleccionar la fila
                      00297         if lcdvalorf==1
                      00298         MOVLW lcdvalorc
                      00299         MOVWF ubicacionlcdfcr
                      00300         DECF ubicacionlcdfcr,1
                      00301         MOVlW 0X80
                      00302         ADDWF ubicacionlcdfcr,0
                      00303         call ESCRIBIRCOMANDO
                      00304         endif
                      00305         if lcdvalorf==2
                      00306         MOVLW lcdvalorc
                      00307         MOVWF ubicacionlcdfcr
                      00308         DECF ubicacionlcdfcr,1
                      00309         MOVlW 0XC0
                      00310         ADDWF ubicacionlcdfcr,0
                      00311         call ESCRIBIRCOMANDO
                      00312         endif
                      00313         if lcdvalorf==3
                      00314         MOVLW lcdvalorc
                      00315         MOVWF ubicacionlcdfcr
                      00316         DECF ubicacionlcdfcr,1
                      00317         MOVlW 0X94
                      00318         ADDWF ubicacionlcdfcr,0
                      00319         call ESCRIBIRCOMANDO
                      00320         endif
                      00321         if lcdvalorf==4
                      00322         MOVLW lcdvalorc
                      00323         MOVWF ubicacionlcdfcr
                      00324         DECF ubicacionlcdfcr,1
                      00325         MOVlW 0XD4
                      00326         ADDWF ubicacionlcdfcr,0
                      00327         call ESCRIBIRCOMANDO
                      00328         endif
                      00329         ;Para seleccionar la columna
                      00330 
Warning[205]: Found directive in column 1. (endm)
                      00331 endm
                      00332 
                      00333 ;\\\\\\\\\\\\\\\\\\\\\\\\\\\\\\\\\\\\\\\\\\\\\\\\\\\\\\\\\\\\\\\\\\\\\\\\\\\\\\\\\\\\\\\\               
                      00334 
                      00335 ;Desde aquí los comandos para manipulación del display //////////////////////////////////////////
MPASM 5.86                      RECEPTOR.ASM   9-22-2020  11:55:59         PAGE  8


LOC  OBJECT CODE     LINE SOURCE TEXT
  VALUE

                      00336 CLEAR_LCD  MACRO                ;Borra todo lo de la pantalla
                      00337         MOVLW limpiar_lcd
                      00338         CALL  ESCRIBIRCOMANDO
                      00339     ENDM
                      00340 borrarfila macro valor
                      00341         lcdfc valor,.1
                      00342         CALL subp4arab0rf1l     
                      00343         lcdfc valor,.1
Warning[205]: Found directive in column 1. (endm)
                      00344 endm               
Warning[207]: Found label after column 1. (desplazaderecha)
                      00345  desplazaderecha  macro                 ;Mueve todo lo escrito en la pantalla 1 a la derecha
                      00346                   movlw  mover_pantalla_derecha
                      00347                   call   ESCRIBIRCOMANDO             
                      00348                   endm
Warning[207]: Found label after column 1. (desplazaizquierda)
                      00349  desplazaizquierda  macro       ;Mueve todo lo escrito en la pantalla 1 a la izquierda         
                      00350                                 movlw  mover_pantalla_izquierda
                      00351                                 call   ESCRIBIRCOMANDO             
                      00352                                 endm
Warning[207]: Found label after column 1. (apagarpantalla)
                      00353  apagarpantalla macro
                      00354                                 movlw apagar_el_display
                      00355                                 call ESCRIBIRCOMANDO
                      00356  endm
                      00357 ONLY_DISPLAY MACRO
                      00358         MOVLW solo_display
                      00359         CALL ESCRIBIRCOMANDO
                      00360     ENDM
                      00361  
                      00362  ;/////////////////////////////////////////////////////////////////////////////////
                      00363  ;/////////////////////////////////////////////////////////////////////////////////
                      00364  ;Para enviar 1 pulso de duración programable
                      00365  ;Requiere de la Librería RETARDOS.ASM
                      00366  
Warning[207]: Found label after column 1. (PULSOSUB)
                      00367  PULSOSUB macro pinp,registrop,duracion
                      00368                 BSF registrop,pinp
                      00369                 milisegundo duracion
                      00370                 BCF registrop,pinp
                      00371  endm
                      00372  ;///////////////////// Operaciones matemáticas //////////////////////////////////
                      00373  ;//////////////////////////////////////////////////////
                      00374 sumarreg macro registro1,registro2
                      00375    movf registro1,0
                      00376    movwf Reg15tr01
                      00377    movf registro2,0
                      00378    movwf Reg15tr02
                      00379    call Separaciondigit05
                      00380    call ParaSumarReg1str0s
Warning[205]: Found directive in column 1. (endm)
                      00381 endm
                      00382 
MPASM 5.86                      RECEPTOR.ASM   9-22-2020  11:55:59         PAGE  9


LOC  OBJECT CODE     LINE SOURCE TEXT
  VALUE

                      00383 restarreg macro registrox1,registrox2; Hay que asegurarse que el registro 1 sea mayor al registro2.
                      00384    movf registrox1,0
                      00385    movwf Reg15tr01
                      00386    movf registrox2,0
                      00387    movwf Reg15tr02
                      00388    call ParaRestarReg1str0s2
Warning[205]: Found directive in column 1. (endm)
                      00389 endm
                      00390  
                      00391 multiplicarreg macro registrom1,registrom2
                      00392    movf registrom1,0
                      00393    movwf Reg15tr01
                      00394    movf registrom2,0
                      00395    movwf Reg15tr02
                      00396    call Separaciondigit05
                      00397    call ParaMultiplicarReg1str0s
Warning[205]: Found directive in column 1. (endm)
                      00398 endm 
                      00399 
                      00400 crearreg macro registroc1,registroc2,registroc3
                      00401    movf registroc1,0
                      00402    movwf Reg15tr01
                      00403    movf registroc2,0
                      00404    movwf Reg15tr02
                      00405    movf registroc3,0
                      00406    movwf Reg15tr03
                      00407    call ParaCrearReg1str0
Warning[205]: Found directive in column 1. (endm)
                      00408 endm
                      00409 
                      00410 ;///////////////////////////////////////////////////////////////////////////////////////////////////////
                            /////
                      00411 ;//////////////////////////////////// Para módulo HC-SR04 //////////////////////////////////////////////
                            /////
                      00412 ;///////////////////////////////////////////////////////////////////////////////////////////////////////
                            /////  
                      00413 
                      00414 iniciar_hcsr04  macro
                      00415         banco 1
                      00416         MOVLW b'00000111' ; Timer 0 como temporizador y escala 256
                      00417         MOVWF OPTION_REG  ; Cargamos la configuración en el TMR0
                      00418         banco 0
                      00419         BCF TRIGGER
                      00420         MOVLW .88 ;Cargamos el valor de ajuste de medida 51.2/58 = 0.88
                      00421          MOVWF Ajust3d1st ;En la variable de ajuste "Ajust3d1st"
Warning[205]: Found directive in column 1. (endm)
                      00422 endm
                      00423 
                      00424 medir_ultrasonico macro Rresulm3edid4
                      00425         CALL Med1rdiist4nc1ia  ;Llama a la subrutina de medición
                      00426         MOVF valaux04,0        ;Extrae el valor de la respuesta en W 
                      00427         MOVWF Rresulm3edid4    ;Guarda la respuesta en el indicador de registro 
Warning[205]: Found directive in column 1. (endm)
MPASM 5.86                      RECEPTOR.ASM   9-22-2020  11:55:59         PAGE 10


LOC  OBJECT CODE     LINE SOURCE TEXT
  VALUE

                      00428 endm
                      00429 
                      00430 ;\\\\\\\\\\\\\\\\\\\\\\\\\\\\\\\\\\\\\\\\\\\\\\\\\\\\\\\\\\\\\\\\\\\\\\\\\\\\\\\\\\\\\\\\\\
                      00431  ;\\\\\\\\\\\\\\\\\\\\\\\\\\\\\\\ Para teclado 4x4         \\\\\\\\\\\\\\\\\\\\\\\\\\\\
                      00432  ;\\\\\\\\\\\\\\\\\\\\\\\\\\\\\\\\\\\\\\\\\\\\\\\\\\\\\\\\\\\\\\\\\\\\\\\\\\\\\\\\\\\\\\\\\\
                      00433  
                      00434 iniciar_teclado macro
                      00435         CALL IN1ci0t3cla4do
Warning[205]: Found directive in column 1. (endm)
                      00436 endm
                      00437 
                      00438 leertecla macro
                      00439         BSF Sit3cl4pus,0
                      00440         CALL Tttest3aTecld0o
Warning[205]: Found directive in column 1. (endm)
                      00441 endm
                      00442 
                      00443 irsitecla macro subrutdepulso
                      00444         BCF Sit3cl4pus,0
                      00445         CALL Tttest3aTecld0o
                      00446         MOVF tekl4pul5,0
                      00447         BTFSS Hhayrt3cla,0
                      00448         GOTO subrutdepulso
Warning[205]: Found directive in column 1. (endm)
                      00449 endm
                      00450 
                      00451 llamarsitecla macro subrutdepulso
                      00452         BCF Sit3cl4pus,0
                      00453         CALL Tttest3aTecld0o
                      00454         MOVF tekl4pul5,0
                      00455         BTFSS Hhayrt3cla,0
                      00456         CALL subrutdepulso
Warning[205]: Found directive in column 1. (endm)
                      00457 endm
                      00458 
                      00459 ; ///////////////////////////////-------------------------//////////////////////////////////////////////
                            ////
                      00460 
                      00461 
                      00004 ; CONFIG1
                      00005 ; __config 0x2FC2
2007   2FC2           00006  __CONFIG _CONFIG1, _FOSC_HS & _WDTE_OFF & _PWRTE_ON & _MCLRE_OFF & _CP_OFF & _CPD_OFF & _BOREN_ON & _IE
                            SO_ON & _FCMEN_ON & _LVP_OFF
                      00007 ; CONFIG2
                      00008 ; __config 0x3FFF
2008   3FFF           00009  __CONFIG _CONFIG2, _BOR4V_BOR40V & _WRT_OFF
                      00010  
                      00011  CBLOCK 0x20
  00000020            00012     DIGITO
  00000021            00013     TEMP
  00000022            00014     CONTADOR
  00000023            00015     REC_BYTE1
  00000024            00016     REC_BYTE2
MPASM 5.86                      RECEPTOR.ASM   9-22-2020  11:55:59         PAGE 11


LOC  OBJECT CODE     LINE SOURCE TEXT
  VALUE

Warning[205]: Found directive in column 1. (ENDC)
                      00017 ENDC
                      00018 
                      00019     ORG 0
0000   2???           00020     GOTO SETUP
0001                  00021 SETUP:
                      00022     LCD_INIT
0001   2???               M         CALL  Inicio_lcd
0002   2???           00023     CALL IR_INIT
0003                  00024 START:
                      00025     WRITE_LCD 'C'
0003   3043               M         MOVLW 'C'
0004   2???               M         CALL  ESCRIBIRCARACTER  ;Subrutina en la librería que me permite enviar el caracter
                      00026     WRITE_LCD 'O'
0005   304F               M         MOVLW 'O'
0006   2???               M         CALL  ESCRIBIRCARACTER  ;Subrutina en la librería que me permite enviar el caracter
                      00027     WRITE_LCD 'D'
0007   3044               M         MOVLW 'D'
0008   2???               M         CALL  ESCRIBIRCARACTER  ;Subrutina en la librería que me permite enviar el caracter
                      00028     WRITE_LCD 'I'
0009   3049               M         MOVLW 'I'
000A   2???               M         CALL  ESCRIBIRCARACTER  ;Subrutina en la librería que me permite enviar el caracter
                      00029     WRITE_LCD 'G'
000B   3047               M         MOVLW 'G'
000C   2???               M         CALL  ESCRIBIRCARACTER  ;Subrutina en la librería que me permite enviar el caracter
                      00030     WRITE_LCD 'O'
000D   304F               M         MOVLW 'O'
000E   2???               M         CALL  ESCRIBIRCARACTER  ;Subrutina en la librería que me permite enviar el caracter
                      00031     WRITE_LCD ':'
000F   303A               M         MOVLW ':'
0010   2???               M         CALL  ESCRIBIRCARACTER  ;Subrutina en la librería que me permite enviar el caracter
0011   01A2           00032     CLRF CONTADOR
0012   0823           00033     MOVFW REC_BYTE1
0013   00A1           00034     MOVWF TEMP
0014   2???           00035     CALL IMPRIMIR_VAR
0015   0824           00036     MOVFW REC_BYTE2
0016   00A1           00037     MOVWF TEMP
0017   2???           00038     CALL IMPRIMIR_VAR
                      00039     ORIGIN_LCD
0018   3002               M                 movlw home_inicio
0019   2???               M                 call ESCRIBIRCOMANDO
                      00040     ONLY_DISPLAY
001A   300C               M         MOVLW solo_display
001B   2???               M         CALL ESCRIBIRCOMANDO
001C   2???           00041     CALL IR_RCV
001D   2???           00042     GOTO START
                      00043 
001E                  00044 IMPRIMIR_VAR:
Message[305]: Using default destination of 1 (file).
001E   0AA2           00045     INCF CONTADOR
001F   3009           00046     MOVLW D'9'
0020   00A0           00047     MOVWF DIGITO
0021   0EA1           00048     SWAPF TEMP,1
MPASM 5.86                      RECEPTOR.ASM   9-22-2020  11:55:59         PAGE 12


LOC  OBJECT CODE     LINE SOURCE TEXT
  VALUE

0022   0821           00049     MOVFW TEMP
0023   390F           00050     ANDLW 0xF
0024   02A0           00051     SUBWF DIGITO,1
0025   1803           00052     BTFSC STATUS,C
0026   2???           00053     GOTO DECIMAL
0027   2???           00054     GOTO HEXADECIMAL
0028                  00055 DECIMAL:
0028   00A0           00056     MOVWF DIGITO
                      00057     WRITE_LCD_REG DIGITO
0029   3030               M         MOVLW .48
002A   0720               M         ADDWF DIGITO,0
002B   2???               M         CALL  ESCRIBIRCARACTER   ;Subrutina en la librería que me permite enviar el valor
002C   2???           00058     GOTO VERIFICACION
002D                  00059 HEXADECIMAL:
002D   00A0           00060     MOVWF DIGITO
                      00061     WRITE_LCD_REG_HEX DIGITO
002E   3037               M         MOVLW .55
002F   0720               M         ADDWF DIGITO,0
0030   2???               M         CALL  ESCRIBIRCARACTER   ;Subrutina en la librería que me permite enviar el valor
0031                  00062 VERIFICACION:
0031   3002           00063     MOVLW D'2'
0032   0222           00064     SUBWF CONTADOR,0
0033   1D03           00065     BTFSS STATUS,Z
0034   2???           00066     GOTO IMPRIMIR_VAR
0035   01A2           00067     CLRF CONTADOR
0036   0008           00068     RETURN
                      00069     
0037                  00070 IR_INIT: 
0037   1683           00071     BSF STATUS,RP0
0038   1703           00072     BSF STATUS,RP1
Message[302]: Register in operand not in bank 0.  Ensure that bank bits are correct.
0039   0188           00073     CLRF ANSEL
Message[302]: Register in operand not in bank 0.  Ensure that bank bits are correct.
003A   0189           00074     CLRF ANSELH
003B   1683           00075     BSF STATUS,RP0
003C   1303           00076     BCF STATUS,RP1
Message[302]: Register in operand not in bank 0.  Ensure that bank bits are correct.
003D   1606           00077     BSF TRISB,4         ; IR is input
Message[302]: Register in operand not in bank 0.  Ensure that bank bits are correct.
003E   0188           00078     CLRF TRISD
003F   30D3           00079     MOVLW B'11010011'   ;PRESCALLER:16.
Message[302]: Register in operand not in bank 0.  Ensure that bank bits are correct.
0040   0081           00080     MOVWF OPTION_REG
0041   1283           00081     BCF STATUS,RP0      ; Select memory bank 0
0042   0188           00082     CLRF PORTD
0043   01A3           00083     CLRF REC_BYTE1
0044   01A4           00084     CLRF REC_BYTE2
0045   01A2           00085     CLRF CONTADOR
0046   0008           00086     RETURN
                      00087 
0047                  00088 IR_RCV:
0047   2???           00089     CALL RETARDO_50MICROS
0048   1A06           00090     BTFSC PORTB,4
MPASM 5.86                      RECEPTOR.ASM   9-22-2020  11:55:59         PAGE 13


LOC  OBJECT CODE     LINE SOURCE TEXT
  VALUE

0049   2???           00091     GOTO IR_RCV
004A   2???           00092     CALL RETARDO_1200MICROS
004B   1E06           00093     BTFSS PORTB,4
004C   2???           00094     GOTO IR_RCV
004D   2???           00095     CALL RETARDO_600MICROS
004E                  00096 BUCLE:
004E   2???           00097     CALL RETARDO_600MICROS
004F   1A06           00098     BTFSC PORTB,4
0050   2???           00099     GOTO CERO
0051                  00100 UNO:
0051   1403           00101     BSF STATUS,C
Message[305]: Using default destination of 1 (file).
0052   0DA3           00102     RLF REC_BYTE1
Message[305]: Using default destination of 1 (file).
0053   0DA4           00103     RLF REC_BYTE2
0054   0AA2           00104     INCF CONTADOR,1
0055   2???           00105     CALL RETARDO_600MICROS
0056   2???           00106     GOTO VERIFICACION_2
0057                  00107 CERO: 
0057   1003           00108     BCF STATUS,C
Message[305]: Using default destination of 1 (file).
0058   0DA3           00109     RLF REC_BYTE1
Message[305]: Using default destination of 1 (file).
0059   0DA4           00110     RLF REC_BYTE2
005A   0AA2           00111     INCF CONTADOR,1
005B                  00112 VERIFICACION_2:
005B   300C           00113     MOVLW D'12'
005C   0222           00114     SUBWF CONTADOR,0
005D   1D03           00115     BTFSS STATUS,Z
005E   2???           00116     GOTO BUCLE
005F   0008           00117     RETURN
                      00118 
                      00119 ;RETARDO DE 1.2MS USANDO TIMER0.
0060                  00120 RETARDO_1200MICROS:
0060   110B           00121     BCF INTCON,T0IF
0061   306A           00122     MOVLW D'106'
0062   0081           00123     MOVWF TMR0
0063                  00124 COMPROBAR:
0063   1D0B           00125     BTFSS INTCON,T0IF
0064   2???           00126     GOTO COMPROBAR
0065   0008           00127     RETURN
                      00128     
                      00129 ;RETARDO DE 600 MICROS USANDO TIMER0.
0066                  00130 RETARDO_600MICROS:
0066   110B           00131     BCF INTCON,T0IF
0067   30DB           00132     MOVLW D'219'
0068   0081           00133     MOVWF TMR0
0069                  00134 COMPROBAR_2:
0069   1D0B           00135     BTFSS INTCON,T0IF
006A   2???           00136     GOTO COMPROBAR_2
006B   0008           00137     RETURN
                      00138     
                      00139 ;RETARDO DE 50 MICROS USANDO TIMER0.
MPASM 5.86                      RECEPTOR.ASM   9-22-2020  11:55:59         PAGE 14


LOC  OBJECT CODE     LINE SOURCE TEXT
  VALUE

006C                  00140 RETARDO_50MICROS:
006C   110B           00141     BCF INTCON,T0IF
006D   30FD           00142     MOVLW D'253'
006E   0081           00143     MOVWF TMR0
006F                  00144 COMPROBAR_3:
006F   1D0B           00145     BTFSS INTCON,T0IF
0070   2???           00146     GOTO COMPROBAR_3
0071   0008           00147     RETURN
                      00148     
                      00149     #INCLUDE <RETARDOS.inc>
                      00001 ;::::::::::::: www.rodrigocarita.com ::::::::::::::::::::::::::
                      00002 ;                       Retardos.asm   Versión: 1.0
                      00003 
                      00004 ; Librería de retardos por bucles anidados.
                      00005 ; 
                      00006 ;             Se utiliza con la Macro.inc
                      00007 ; milisegundo .2   -> Genera un retardo de 2 milisegundos
                      00008 ; Segundo .6 -> Genera un retardo de 6 segundos
                      00009 ; Los valores deben estar entre 0 a 255.
                      00010 
                      00011         cblock                          
  00000025            00012         memo_tiemp_1        
  00000026            00013         memo_tiemp_2        
  00000027            00014         memo_tiemp_3        
  00000028            00015         memo_tiemp_4
                      00016         endc
                      00017 
0072                  00018 milisegundos
0072   00A5           00019          movwf  memo_tiemp_1
Warning[207]: Found label after column 1. (retbucle1)
0073                  00020     retbucle1
0073   3011           00021          movlw  .17
0074   00A6           00022          movwf  memo_tiemp_2 
Warning[207]: Found label after column 1. (retbucle2)
0075                  00023     retbucle2
0075   303A           00024          movlw  .58
0076   00A7           00025          movwf  memo_tiemp_3     
Warning[207]: Found label after column 1. (retbucle3)
0077                  00026     retbucle3
0077   0000           00027          nop
0078   0000           00028          nop
0079   0BA7           00029          decfsz memo_tiemp_3,1     
007A   2???           00030          goto   retbucle3
007B   0BA6           00031          decfsz memo_tiemp_2,1
007C   2???           00032          goto   retbucle2
007D   0BA5           00033          decfsz memo_tiemp_1,1
007E   2???           00034          goto   retbucle1
Warning[203]: Found opcode in column 1. (RETURN)
007F   0008           00035 RETURN
0080                  00036 segundos
0080   00A5           00037          movwf  memo_tiemp_1
Warning[207]: Found label after column 1. (retbucle1a)
0081                  00038     retbucle1a
MPASM 5.86                      RECEPTOR.ASM   9-22-2020  11:55:59         PAGE 15


LOC  OBJECT CODE     LINE SOURCE TEXT
  VALUE

0081   30FA           00039          movlw  .250
0082   00A6           00040          movwf  memo_tiemp_2 
Warning[207]: Found label after column 1. (retbucle2a)
0083                  00041     retbucle2a
0083   30FA           00042          movlw  .250
0084   00A7           00043          movwf  memo_tiemp_3     
Warning[207]: Found label after column 1. (retbucle3a)
0085                  00044     retbucle3a
0085   3013           00045          movlw  .19
0086   00A8           00046          movwf  memo_tiemp_4 
Warning[207]: Found label after column 1. (retbucle4a)
0087                  00047     retbucle4a
0087   0000           00048          nop
0088   0BA8           00049          decfsz memo_tiemp_4,1 
0089   2???           00050          goto   retbucle4a
008A   0BA7           00051          decfsz memo_tiemp_3,1    
008B   2???           00052          goto   retbucle3a
008C   0BA6           00053          decfsz memo_tiemp_2,1
008D   2???           00054          goto   retbucle2a
008E   0BA5           00055          decfsz memo_tiemp_1,1
008F   2???           00056          goto   retbucle1a
Warning[203]: Found opcode in column 1. (RETURN)
0090   0008           00057 RETURN
                      00058 
                      00059 
                      00150     #INCLUDE <LCD20X4.inc>
Warning[205]: Found directive in column 1. (CBLOCK)
                      00001 CBLOCK
  00000029            00002         NumCadena               ;número de la cadena 
  0000002A            00003         indice
  0000002B            00004         memocaracter            
  0000002C            00005         memoriaw
  0000002D            00006         caractertemp
  0000002E            00007         ubicacionlcdfcr
  0000002F            00008         ubicacionlcdccr
  00000030            00009         Varregcomp
Warning[205]: Found directive in column 1. (ENDC)
                      00010 ENDC
                      00011 
  00000008            00012 DATOS EQU PORTD                 ;lineas de datos = portD
  00000008            00013 pinlcd EQU PORTD                ;lineas de control = portD
                      00014 
  00000001            00015 RS EQU 1 ;linea de control RS = bit1
  00000002            00016 RW EQU 2 ;linea de control RW = bit2
  00000003            00017 E EQU 3  ;linea de control E = bit3
                      00018 
  0000000F            00019 on_display_cursor_blink EQU     0FH     ;Activa el display, el cursor y hace parpadear el cursor
  0000000C            00020 solo_display            EQU     0CH     ; Apaga el cursor y su parpadeo Pertenece al comando Display ON/
                            OFF
  00000001            00021 limpiar_lcd             EQU     01H     ; limpia los caracteres de la pantalla
  00000008            00022 apagar_el_display       EQU     08H             ; apaga la pantalla
  000000C0            00023 salto_enter             EQU     0C0H    ; Se dirije a la segunda línea
  00000002            00024 home_inicio             EQU     02H     ; Vuelve al inicio
MPASM 5.86                      RECEPTOR.ASM   9-22-2020  11:55:59         PAGE 16


LOC  OBJECT CODE     LINE SOURCE TEXT
  VALUE

                      00025 
  00000010            00026 mover_cursor_izquierda  EQU     10H     ; Mueve el cursor a la izquierda
  00000014            00027 mover_cursor_derecha    EQU     14H     ; Mueve el cursor a la derecha
                      00028 
  00000018            00029 mover_pantalla_izquierda        EQU     18H     ; Mueve toda al pantalla a la izquierda
  0000001C            00030 mover_pantalla_derecha          EQU     1CH     ; Mueve toda la pantalla a la derecha
                      00031 
  00000000            00032 off                             EQU  0
  00000001            00033 on                              EQU  1
                      00034 
                      00035 ;//////////////////////////////////////////////////////////////////
                      00036 ; Como la conexión al lcd lo estamos desarrollando mediante 4 hilos,
                      00037 ;Para enviar datos de 8 bits se va a realizar por partes.
                      00038 ;Esta subrutina se encarga de enmascarar el byte para en primer lugar
                      00039 ;A los bits de mayor peso y luego de un impulso en el pin de Enable
                      00040 ;Enviará el segundo.
0091                  00041 ESCRIBIRCOMANDO:                    ;Subrutina para separar en 2 grupos un byte y enviarlos al controlad
                            or por partes.
0091   00AB           00042         MOVWF   memocaracter        ;Desde la macro llegamos con un valor en w, ahora lo guardaremos el 
                            registro memocaracter.
0092   2???           00043         CALL    COMPROBARSIOCUPADO  ;Llamamos a la subrutina que comprueba que el controlador está desoc
                            upado.
0093   082B           00044         MOVF    memocaracter,w      ;Extraemos en W el valor que guardamos en el registro memocaracter. 
0094   39F0           00045         ANDLW   b'11110000'         ;El código de enmascaramiento que nos permitirá quedarnos con los 4b
                            its MSB.
0095   0088           00046         MOVWF   DATOS               ;Guardamos el valor del enmasacaramiento en un registro llamado DATO
                            S.
0096   1108           00047         BCF     pinlcd,RW           ;Para que el LCD reciba comandos RW se encuentre en 0.
0097   1088           00048         BCF     pinlcd,RS           ;Otro pin que debemos poner a 0 para que el modulo trabaje en modo c
                            omando.
0098   0000           00049         NOP                         ;Esperamos un pequeño tiempo 0.2uS.
0099   1588           00050         BSF     pinlcd,E            ;Realizamos el impulso en el pin de Enable para realizar la transfer
                            encia del Dato.
009A   0000           00051         NOP                         ;Ancho del impulso 0.2uS.                                   
009B   1188           00052         BCF     pinlcd,E            ;Fin del impulso. 
009C   0E2B           00053         SWAPF   memocaracter,w      ;Ahora nos queda extraer los 4LSB, los intercambiamos con los de MSB
                             y almacenamos en W.
009D   39F0           00054         ANDLW   b'11110000'         ;Volvemos a realizar el enmascaramiento de los 4MSB despues del inte
                            rcambio con swapf.
009E   0088           00055         MOVWF   DATOS               ;El resultado lo guardamos en el registro DATOS.
009F   0000           00056         NOP                         ;Esperamos un pequeño tiempo 0.2uS.
00A0   1588           00057         BSF     pinlcd,E            ;Realizamos el impulso en el pin de Enable para enviar la segunda pa
                            rte del comando.
00A1   0000           00058         NOP                         ;Ancho del impulso 0.2uS.
00A2   1188           00059         BCF     pinlcd,E            ;Fin del impulso.
00A3   0008           00060         RETURN                      ;Regresamos a donde nos han llamado.
                      00061 
00A4                  00062 ESCRIBIRCARACTER:                               ;Subrutina para separar en 2 grupos un byte y enviarlos 
                            al controlador por partes.
00A4   00AC           00063         movwf   memoriaw                        ;Posiblemente se llegue a la subrutina con un valor en W
                            , vamos a guardarlo y devolverlo al final.
00A5   00AB           00064         movwf   memocaracter        ;Desde la macro llegamos con un valor en w, ahora lo guardaremos el 
                            registro memocaracter.
MPASM 5.86                      RECEPTOR.ASM   9-22-2020  11:55:59         PAGE 17


LOC  OBJECT CODE     LINE SOURCE TEXT
  VALUE

00A6   2???           00065         call    COMPROBARSIOCUPADO  ;Llamamos a la subrutina que comprueba que el controlador está desoc
                            upado.
00A7   082B           00066         movf    memocaracter,w      ;Extraemos en W el valor que guardamos en el registro memocaracter. 
                               
00A8   39F0           00067         andlw   b'11110000'         ;El código de enmascaramiento que nos permitirá quedarnos con los 4b
                            its MSB.
00A9   0088           00068         movwf   DATOS                   ;Guardamos el valor del enmasacaramiento en un registro llamado 
                            DATOS.
00AA   1108           00069         bcf     pinlcd,RW               ;Para que el LCD reciba datos RW se encuentre en 0.
00AB   1488           00070         bsf     pinlcd,RS               ;Pin que debemos poner a 1 para que el modulo trabaje en modo vi
                            sualización. 
00AC   0000           00071         nop                                                     ;Esperamos un pequeño tiempo 0.2uS.
00AD   1588           00072         bsf     pinlcd,E                ;Realizamos el impulso en el pin de Enable para realizar la tran
                            sferencia del Dato.
00AE   0000           00073         nop                                                     ;Ancho del impulso 0.2uS.
00AF   1188           00074         bcf     pinlcd,E                        ;Fin del impulso.       
00B0   0E2B           00075         swapf   memocaracter,w          ;Ahora nos queda extraer los 4LSB, los intercambiamos con los de
                             MSB y almacenamos en W.
00B1   39F0           00076         andlw   b'11110000'             ;Volvemos a realizar el enmascaramiento de los 4MSB despues del 
                            intercambio con swapf.
00B2   0088           00077         movwf   DATOS                   ;El resultado lo guardamos en el registro DATOS.
00B3   1108           00078         bcf     pinlcd,RW               ;Aseguramos que el pin RW se encuenre en 0 para empezar a recibi
                            r datos.
00B4   1488           00079         bsf     pinlcd,RS               ;Aseguramos que el Pin RS se encuentre en modo visualización. (r
                            ecibe caracteres).
00B5   0000           00080         nop                                                     ;Esperamos un pequeño tiempo 0.2uS.
00B6   1588           00081         bsf     pinlcd,E                ;Realizamos el impulso en el pin de Enable para realizar la tran
                            sferencia del Dato.
00B7   0000           00082         nop                                                     ;Ancho del impulso 0.2uS.
00B8   1188           00083         bcf     pinlcd,E                        ;Fin del impulso
00B9   082C           00084         movf    memoriaw,W                      ;Finalizada la subrutina devolvemos el valor de W para q
                            ue no modifique el proceso
00BA   0008           00085         RETURN                                          ;Fin de la subrutina
                      00086         
00BB                  00087 COMPROBARSIOCUPADO:                             ;Subrutina Testeará la bandera de Busy para saber si el 
                            controlador del módulo está ocupado.
                      00088         SEL_BANK 1                                      ;Vamos al banco 1 para cambiar los pines D4 a D7
                             como entrada, por ahi recibiremos el dato
                          M         IF 1==0
                          M         BCF STATUS, RP0
                          M         BCF STATUS, RP1
                          M         ENDIF
                          M 
                          M         IF 1==1
00BB   1683               M         BSF STATUS, RP0
00BC   1303               M         BCF STATUS, RP1
                          M         ENDIF
                          M 
                          M         IF 1==2
                          M         BCF STATUS, RP0
                          M         BSF STATUS, RP1
                          M         ENDIF
                          M 
MPASM 5.86                      RECEPTOR.ASM   9-22-2020  11:55:59         PAGE 18


LOC  OBJECT CODE     LINE SOURCE TEXT
  VALUE

                          M         IF 1==3
                          M         BSF STATUS, RP0
                          M         BSF STATUS, RP1
                          M         ENDIF
00BD   30F0           00089         movlw   b'11110000'                     ;Pines D4 a D7 como entrada
Message[302]: Register in operand not in bank 0.  Ensure that bank bits are correct.
00BE   0088           00090         movwf   TRISD                           ;Conectados al puerto D
                      00091         SEL_BANK 0                                      ;Volvemos al banco 0 para realizar el testeo
                          M         IF 0==0
00BF   1283               M         BCF STATUS, RP0
00C0   1303               M         BCF STATUS, RP1
                          M         ENDIF
                          M 
                          M         IF 0==1
                          M         BSF STATUS, RP0
                          M         BCF STATUS, RP1
                          M         ENDIF
                          M 
                          M         IF 0==2
                          M         BCF STATUS, RP0
                          M         BSF STATUS, RP1
                          M         ENDIF
                          M 
                          M         IF 0==3
                          M         BSF STATUS, RP0
                          M         BSF STATUS, RP1
                          M         ENDIF
00C1   1088           00092         bcf     pinlcd,RS               ;Configuramos el controlador en modo Comando
00C2   1508           00093         bsf     pinlcd,RW               ;Configuramos el LCD para que nos envie datos.
00C3   0000           00094         nop                                                     ;Esperamos un pequeño tiempo 0.2uS
00C4   1588           00095         bsf     pinlcd,E                ;Activamos el pin de Enable para que empiece la transferencia y 
                            el módulo nos responda.
00C5   0000           00096         nop                                                     ;Esperamos un prqueño tiempo de 0.2uS
00C6   0808           00097         movf    DATOS,W                 ;Extrae el valor del registro DATOS (4msb) y lo guarda en W está
                             es la primera respuesta
00C7   1188           00098         bcf     pinlcd,E                ;Apagamos el pin de Enable para leer los 4lsb restantes.
00C8   39F0           00099         andlw   0F0h                    ;La respuesta anterior la enmascaramos
00C9   00AD           00100         movwf   caractertemp            ;Almacenamos el caracter temporalmente
00CA   0000           00101         nop                                                     ;Esperamos un pequeño tiempo            
                                                    
00CB   1588           00102         bsf     pinlcd,E                        ;Activamos el pin de Enable para que comience la transfe
                            rencia.
00CC   0000           00103         nop                                                     ;Esperamos otro pequeño tiempo
00CD   0E08           00104         swapf   DATOS,w                 ;Leemos la respuesta y lo intercambiamos con los 4msb para guard
                            arlo en W
00CE   1188           00105         bcf     pinlcd,E                ;Apagamos la transferencia.
00CF   390F           00106         andlw   00Fh                    ;Enmascaramos la segunda respuesta
00D0   04AD           00107         iorwf   caractertemp,1      ;Combina nibbles Juntamos la primera con la segunda respuesta para f
                            ormar la respuesta gral
00D1   1BAD           00108         btfsc   caractertemp,7      ;Comprobamos el pin 7 de la respuesta, esta es la bandera de busy, s
                            i se encuentra en 1=ocupado
00D2   2???           00109         goto    COMPROBARSIOCUPADO  ;Si la respuesta es ocupado repetiremos todo el proceso denuevo
00D3   1108           00110         bcf     pinlcd,RW               ;Si la respuesta es desocupado Continuamos, en este caso apagamo
MPASM 5.86                      RECEPTOR.ASM   9-22-2020  11:55:59         PAGE 19


LOC  OBJECT CODE     LINE SOURCE TEXT
  VALUE

                            s el bit de intercambio de datos
                      00111         SEL_BANK 1                                      ;Vamos al banco 1 para dejar las cosas como esta
                            ban antes
                          M         IF 1==0
                          M         BCF STATUS, RP0
                          M         BCF STATUS, RP1
                          M         ENDIF
                          M 
                          M         IF 1==1
00D4   1683               M         BSF STATUS, RP0
00D5   1303               M         BCF STATUS, RP1
                          M         ENDIF
                          M 
                          M         IF 1==2
                          M         BCF STATUS, RP0
                          M         BSF STATUS, RP1
                          M         ENDIF
                          M 
                          M         IF 1==3
                          M         BSF STATUS, RP0
                          M         BSF STATUS, RP1
                          M         ENDIF
00D6   3000           00112         movlw   0x00                            ;Ahora todos los pines como Salida
Message[302]: Register in operand not in bank 0.  Ensure that bank bits are correct.
00D7   0088           00113         movwf   TRISD                           ;Del puerto D
                      00114         SEL_BANK        0                                       ;Vamos al banco 0
                          M         IF 0==0
00D8   1283               M         BCF STATUS, RP0
00D9   1303               M         BCF STATUS, RP1
                          M         ENDIF
                          M 
                          M         IF 0==1
                          M         BSF STATUS, RP0
                          M         BCF STATUS, RP1
                          M         ENDIF
                          M 
                          M         IF 0==2
                          M         BCF STATUS, RP0
                          M         BSF STATUS, RP1
                          M         ENDIF
                          M 
                          M         IF 0==3
                          M         BSF STATUS, RP0
                          M         BSF STATUS, RP1
                          M         ENDIF
00DA   0008           00115         RETURN                                          ;Salimos de la subrutina
                      00116 
00DB                  00117 Inicio_lcd:                                             ; Esta es la subrutina de secuencia para iniciar
                             el LCD
                      00118         SEL_BANK 0                                          ; Nos dirijimos al banco 0 para manipular pi
                            nes
                          M         IF 0==0
00DB   1283               M         BCF STATUS, RP0
MPASM 5.86                      RECEPTOR.ASM   9-22-2020  11:55:59         PAGE 20


LOC  OBJECT CODE     LINE SOURCE TEXT
  VALUE

00DC   1303               M         BCF STATUS, RP1
                          M         ENDIF
                          M 
                          M         IF 0==1
                          M         BSF STATUS, RP0
                          M         BCF STATUS, RP1
                          M         ENDIF
                          M 
                          M         IF 0==2
                          M         BCF STATUS, RP0
                          M         BSF STATUS, RP1
                          M         ENDIF
                          M 
                          M         IF 0==3
                          M         BSF STATUS, RP0
                          M         BSF STATUS, RP1
                          M         ENDIF
00DD   1188           00119         bcf     pinlcd,E                                ; Apagamos el pin de E
00DE   1108           00120         bcf     pinlcd,RW                               ; Apagamos el pin de RW
00DF   1088           00121         bcf     pinlcd,RS                               ; Apagamos el pin de RS
00E0   300F           00122         movlw   0x0F                            ; Encendemos los pines del LCD
00E1   0088           00123         movwf   DATOS                           ; En el puerto D
                      00124 
                      00125         SEL_BANK 1                                          ; Vamos al banco 1
                          M         IF 1==0
                          M         BCF STATUS, RP0
                          M         BCF STATUS, RP1
                          M         ENDIF
                          M 
                          M         IF 1==1
00E2   1683               M         BSF STATUS, RP0
00E3   1303               M         BCF STATUS, RP1
                          M         ENDIF
                          M 
                          M         IF 1==2
                          M         BCF STATUS, RP0
                          M         BSF STATUS, RP1
                          M         ENDIF
                          M 
                          M         IF 1==3
                          M         BSF STATUS, RP0
                          M         BSF STATUS, RP1
                          M         ENDIF
00E4   300F           00126         movlw B'00001111'       ;Declaramos Todos los pines como salida 
Message[302]: Register in operand not in bank 0.  Ensure that bank bits are correct.
00E5   0088           00127         movwf TRISD                             ;Del puerto D
Message[302]: Register in operand not in bank 0.  Ensure that bank bits are correct.
00E6   1188           00128         bcf     TRISD,E                                 ;Aseguramos que el Pin E sea salida     
Message[302]: Register in operand not in bank 0.  Ensure that bank bits are correct.
00E7   1108           00129         bcf     TRISD,RW                                ;Aseguramos que el pin RW sea salida
Message[302]: Register in operand not in bank 0.  Ensure that bank bits are correct.
00E8   1088           00130         bcf     TRISD,RS                                ;Aseguramos que el pin RS sea salida
                      00131         SEL_BANK 0                                      ;Regresamos al banco 0
MPASM 5.86                      RECEPTOR.ASM   9-22-2020  11:55:59         PAGE 21


LOC  OBJECT CODE     LINE SOURCE TEXT
  VALUE

                          M         IF 0==0
00E9   1283               M         BCF STATUS, RP0
00EA   1303               M         BCF STATUS, RP1
                          M         ENDIF
                          M 
                          M         IF 0==1
                          M         BSF STATUS, RP0
                          M         BCF STATUS, RP1
                          M         ENDIF
                          M 
                          M         IF 0==2
                          M         BCF STATUS, RP0
                          M         BSF STATUS, RP1
                          M         ENDIF
                          M 
                          M         IF 0==3
                          M         BSF STATUS, RP0
                          M         BSF STATUS, RP1
                          M         ENDIF
                      00132 
                      00133 ; ///////////Comienza la secuencia de inicialización de la pantalla LCD//////////////////////
                      00134         milisegundo .20                         ;Despues de encendido tengo que esperar un tiempo mayor 
                            a 15ms
00EB   3014               M                          movlw .20
00EC   2???               M                          call  milisegundos
00ED   3030           00135         movlw   B'00110000'             ;Primer valor pedido por el fabricante
00EE   0088           00136         movwf   DATOS                           ;Lo escribimos en el Puerto D
00EF   0000           00137         nop                                                     ;Esperamos un pequeño tiempo
00F0   1588           00138         bsf     pinlcd,E                ;Enviamos un impulso al pin de Enable para enviar el dato
00F1   0000           00139         nop                                                     ;Ancho del impulso 0,2 uS
00F2   1188           00140         bcf     pinlcd,E                        ;Fin del impulso        
                      00141         milisegundo .10                         ;Antes de pasar al siguiente paso debo esperar más de 5m
                            s
00F3   300A               M                          movlw .10
00F4   2???               M                          call  milisegundos
00F5   3030           00142         movlw   B'00110000'             ;Segundo valor pedido por el fabricante
00F6   0088           00143         movwf   DATOS                   ;Lo escribimos en el Puerto D
00F7   0000           00144         nop                                                     ;Esperamos un pequeño tiempo
00F8   1588           00145         bsf     pinlcd,E                ;Enviamos un impulso al pin de Enable para enviar el dato
00F9   0000           00146         nop                                                     ;Ancho del impulso 0,2 uS
00FA   1188           00147         bcf     pinlcd,E                        ;Fin del impulso        
00FB   3030           00148         movlw   B'00110000'             ;Tercer valor pedido por el fabricante
00FC   0088           00149         movwf   DATOS                   ;Lo escribimos en el Puerto D
00FD   0000           00150         nop                                                     ;Esperamos un pequeño tiempo
00FE   1588           00151         bsf     pinlcd,E                ;Enviamos un impulso al pin de Enable para enviar el dato
00FF   0000           00152         nop                                                     ;Ancho del impulso 0,2 uS
0100   1188           00153         bcf     pinlcd,E                        ;Fin del impulso
                      00154         milisegundo .2                          ;Antes de pasar al siguiente paso debo esperar más de 10
                            0uS
0101   3002               M                          movlw .2
0102   2???               M                          call  milisegundos
0103   3020           00155         movlw   B'00100000'                     ;Cargamos comando de configuración de comunicación de 4b
                            its
MPASM 5.86                      RECEPTOR.ASM   9-22-2020  11:55:59         PAGE 22


LOC  OBJECT CODE     LINE SOURCE TEXT
  VALUE

0104   0088           00156         movwf   DATOS                           ;Escribimos el comando en el puerto D
0105   0000           00157         nop                                                     ;Esperamos un tiempo antes de realizar l
                            a transferencia
0106   1588           00158         bsf     pinlcd,E                ;Enviamos un impulso al pin de Enable para enviar el dato
0107   0000           00159         nop                                                     ;Ancho del impulso 0,2 uS
0108   1188           00160         bcf     pinlcd,E                        ;Fin del impulso
                      00161 
0109   3028           00162         movlw   B'00101000'     ;Interfaz de 4 bits, 2 lineas
010A   2???           00163         call    ESCRIBIRCOMANDO         ; de caracteres de 5x7
                      00164         
010B   300F           00165         movlw   on_display_cursor_blink     ;FH Display on, cursor on,blink
010C   2???           00166         call    ESCRIBIRCOMANDO
                      00167         
010D   3001           00168         movlw   limpiar_lcd             ; Limpia el LCD
010E   2???           00169         call    ESCRIBIRCOMANDO
                      00170         
010F   3006           00171         movlw   B'00000110'     ; Configura para que cada que se escriba un caracter cursor aumente en 1
0110   2???           00172         call    ESCRIBIRCOMANDO         
                      00173         
0111   3080           00174         movlw   B'10000000'     ; Vamos a HOME
0112   2???           00175         call    ESCRIBIRCOMANDO
0113   0008           00176         RETURN
                      00177 
                      00178 ;//////////////////////////////////////////// Tablas para posición de coordenadas //////////////////////
                            ///
                      00179 ;///////////////////////////////////////////////////////////////////////////////////////////////////////
                            ///
                      00180 ;//////////////////////////////////////////////////////////////
                      00181 ;///// Comandos para escribir en el LCD un registro de 3 dígitos
                      00182 
0114                  00183 PARAESCR1B1RREGISTRO:           ;título de subrutina
0114   00B0           00184         MOVWF Varregcomp                        ;Guarda el valor de ingreso en un Registro
                      00185         BCD_CONVERT Varregcomp  ;Separa en 3 registros (dígitos)el valor
0115   0830               M         MOVF Varregcomp,0
0116   2???               M         CALL BINARIO_BCD
                      00186         
                      00187         ;Para valores inferiores a 10
0117   300A           00188         MOVLW d'10'           ;Carga el valor de 10 en una variable    
0118   0230           00189         SUBWF Varregcomp,0    ;De comparación.
0119   1C03           00190         BTFSS STATUS,C        ;El resultado es de 1 dígito?
011A   2???           00191         GOTO UND1G            ;Caso verdadero subrutina para escribir 1 digito
011B   3064           00192         MOVLW d'100'          ;Carga el valor de 100 en una variable
011C   0230           00193         SUBWF Varregcomp,0    ;De comparación 
011D   1C03           00194         BTFSS STATUS,C        ;El resultado es de dos digitos?
011E   2???           00195         GOTO D0SDIG           ;Caso verdadero subrutina de escribir 2 digitos
011F   30FF           00196         MOVLW d'255'          ;Carga el valor de 100 en una
0120   0230           00197         SUBWF Varregcomp,0        ;En una variable de comparación       
0121   1C03           00198         BTFSS STATUS,C            ;El resultado es mayor a 200?
0122   2???           00199         GOTO TRESD1G          ;Caso falso. Va a la subrutina de escribir 3 dig   
0123                  00200 FUERALIM1T3:           ;título de finalización de subrutina
0123   0008           00201         RETURN           ; <------- El return está ahí
0124                  00202 UND1G:             ;Subrutina para escribir 1 dígito
                      00203         WRITE_LCD ' '           ;Escribe 2 espacios 
MPASM 5.86                      RECEPTOR.ASM   9-22-2020  11:55:59         PAGE 23


LOC  OBJECT CODE     LINE SOURCE TEXT
  VALUE

0124   3020               M         MOVLW ' '
0125   2???               M         CALL  ESCRIBIRCARACTER  ;Subrutina en la librería que me permite enviar el caracter
                      00204         WRITE_LCD ' '
0126   3020               M         MOVLW ' '
0127   2???               M         CALL  ESCRIBIRCARACTER  ;Subrutina en la librería que me permite enviar el caracter
                      00205         WRITE_LCD_REG BCD_UNIDAD ;Escribe el digito
0128   3030               M         MOVLW .48
0129   0731               M         ADDWF BCD_UNIDAD,0
012A   2???               M         CALL  ESCRIBIRCARACTER   ;Subrutina en la librería que me permite enviar el valor
012B   2???           00206         GOTO FUERALIM1T3       ;Se va a finalizar la subrutina 
012C                  00207 D0SDIG:                 ;Subrutina para escribir 2 dígitos 
                      00208         WRITE_LCD ' '           ;Escribe un espacio  
012C   3020               M         MOVLW ' '
012D   2???               M         CALL  ESCRIBIRCARACTER  ;Subrutina en la librería que me permite enviar el caracter
                      00209         WRITE_LCD_REG BCD_DECENA ;Escribe el penúltimo digito
012E   3030               M         MOVLW .48
012F   0732               M         ADDWF BCD_DECENA,0
0130   2???               M         CALL  ESCRIBIRCARACTER   ;Subrutina en la librería que me permite enviar el valor
                      00210         WRITE_LCD_REG BCD_UNIDAD ;Escribe el último digito
0131   3030               M         MOVLW .48
0132   0731               M         ADDWF BCD_UNIDAD,0
0133   2???               M         CALL  ESCRIBIRCARACTER   ;Subrutina en la librería que me permite enviar el valor
0134   2???           00211         GOTO FUERALIM1T3       ;Se va a finalizar la subrutina
0135                  00212 TRESD1G:                ;Subrutina para escribir 3 dígitos
                      00213         WRITE_LCD_REG BCD_CENTENA;Escribe el antepenúltimo digito
0135   3030               M         MOVLW .48
0136   0733               M         ADDWF BCD_CENTENA,0
0137   2???               M         CALL  ESCRIBIRCARACTER   ;Subrutina en la librería que me permite enviar el valor
                      00214         WRITE_LCD_REG BCD_DECENA ;Escribe el penúltimo digito
0138   3030               M         MOVLW .48
0139   0732               M         ADDWF BCD_DECENA,0
013A   2???               M         CALL  ESCRIBIRCARACTER   ;Subrutina en la librería que me permite enviar el valor
                      00215         WRITE_LCD_REG BCD_UNIDAD ;Escribe el penúltimo digito
013B   3030               M         MOVLW .48
013C   0731               M         ADDWF BCD_UNIDAD,0
013D   2???               M         CALL  ESCRIBIRCARACTER   ;Subrutina en la librería que me permite enviar el valor
013E   2???           00216         GOTO FUERALIM1T3       ;Se va a finalizar la subrutina 
                      00217 ;\\\\\\\\\\\\\\\\\\\\\\\\\\\\\\\\\\\\\\\\\\\\\\\\\\\\\\\\\\\\
                      00218 ;\\\\\\\\\\\\\\\\\\\\\\\Subrutina para borrar fila \\\\\\\\\\\\\\\\\
                      00219 
013F                  00220 subp4arab0rf1l:
                      00221         MOV_VAL .16,indice
013F   3010               M         MOVLW .16
0140   00AA               M         MOVWF indice
                      00222         WRITE_LCD ' '
0141   3020               M         MOVLW ' '
0142   2???               M         CALL  ESCRIBIRCARACTER  ;Subrutina en la librería que me permite enviar el caracter
0143   0BAA           00223         DECFSZ indice,1
0144   2???           00224         GOTO $-2        
0145   0008           00225         RETURN
                      00226 ;................... Descarga la actualizaciones en: www.rodrigocarita.com      
                      00227         
                      00228 
MPASM 5.86                      RECEPTOR.ASM   9-22-2020  11:55:59         PAGE 24


LOC  OBJECT CODE     LINE SOURCE TEXT
  VALUE

                      00151     #INCLUDE <BCD.INC>
                      00001     CBLOCK
  00000031            00002     BCD_UNIDAD
  00000032            00003     BCD_DECENA
  00000033            00004     BCD_CENTENA
                      00005     ENDC
                      00006 
0146                  00007 BINARIO_BCD:
0146   00B1           00008     MOVWF  BCD_UNIDAD    ;Carga el número binario a convertir
0147   01B3           00009     CLRF   BCD_CENTENA    ;Borra registro
0148   01B2           00010     CLRF   BCD_DECENA     ;Borra registro
0149                  00011 BCD_RESTA10:
0149   300A           00012     MOVLW  .10             ;A las unidades de les va restando
014A   0231           00013     SUBWF  BCD_UNIDAD,0  ;10 en cada pasada 
014B   1C03           00014     BTFSS  STATUS,C        ;C=0? si- entonces bcd_unidad>=0
014C   2???           00015     GOTO   BIN_BCD_Fin     ;No- entonces se acabo  
014D                  00016 BCD_INC_DECENAS:     
014D   00B1           00017     MOVWF  BCD_UNIDAD    ;Recupera lo que queda por restar
014E   0AB2           00018     INCF   BCD_DECENA,1   ;Incrementa las decenas 
014F   300A           00019     MOVLW  .10
0150   0232           00020     SUBWF  BCD_DECENA,0   ;Comprueba si a llegado a 10
0151   1C03           00021     BTFSS  STATUS,C        ;C=1? si- entonces bcd_decena>=0 
0152   2???           00022     GOTO   BCD_RESTA10     ;No- entonces resta 10 a las unidades
0153                  00023 BCD_INC_CENTENAS:
0153   01B2           00024     CLRF   BCD_DECENA     ;Pone a cero las decenas
0154   0AB3           00025     INCF   BCD_CENTENA,1  ;Incrementa las centenas
0155   2???           00026     GOTO   BCD_RESTA10     ;Resta 10 al número a convertir
0156                  00027 BIN_BCD_Fin:
0156   0E32           00028     SWAPF  BCD_DECENA,0   ;Intercambia nibles
0157   0731           00029     ADDWF  BCD_UNIDAD,0  ;Nible bajo=unidades / Nible alto=decenas
0158   0008           00030     RETURN
                      00031 
                      00032 
                      00033 
                      00034 
2FC2 3FFF             00152     END
MPASM 5.86                      RECEPTOR.ASM   9-22-2020  11:55:59         PAGE 25


SYMBOL TABLE
  LABEL                             VALUE 

ABDEN                             00000000
ABDOVF                            00000007
ACKDT                             00000005
ACKEN                             00000004
ACKSTAT                           00000006
ADCON0                            0000001F
ADCON1                            0000009F
ADCS0                             00000006
ADCS1                             00000007
ADDEN                             00000003
ADFM                              00000007
ADIE                              00000006
ADIF                              00000006
ADON                              00000000
ADRESH                            0000001E
ADRESL                            0000009E
ANS0                              00000000
ANS1                              00000001
ANS10                             00000002
ANS11                             00000003
ANS12                             00000004
ANS13                             00000005
ANS2                              00000002
ANS3                              00000003
ANS4                              00000004
ANS5                              00000005
ANS6                              00000006
ANS7                              00000007
ANS8                              00000000
ANS9                              00000001
ANSEL                             00000188
ANSELH                            00000189
BAUDCTL                           00000187
BCD_CENTENA                       00000033
BCD_CONVERT                       
BCD_DECENA                        00000032
BCD_INC_CENTENAS                  00000153
BCD_INC_DECENAS                   0000014D
BCD_RESTA10                       00000149
BCD_UNIDAD                        00000031
BCLIE                             00000003
BCLIF                             00000003
BF                                00000000
BINARIO_BCD                       00000146
BIN_BCD_Fin                       00000156
BRG0                              00000000
BRG1                              00000001
BRG10                             00000002
BRG11                             00000003
BRG12                             00000004
BRG13                             00000005
BRG14                             00000006
BRG15                             00000007
MPASM 5.86                      RECEPTOR.ASM   9-22-2020  11:55:59         PAGE 26


SYMBOL TABLE
  LABEL                             VALUE 

BRG16                             00000003
BRG2                              00000002
BRG3                              00000003
BRG4                              00000004
BRG5                              00000005
BRG6                              00000006
BRG7                              00000007
BRG8                              00000000
BRG9                              00000001
BRGH                              00000002
BUCLE                             0000004E
C                                 00000000
C1CH0                             00000000
C1CH1                             00000001
C1IE                              00000005
C1IF                              00000005
C1OE                              00000005
C1ON                              00000007
C1OUT                             00000006
C1POL                             00000004
C1R                               00000002
C1RSEL                            00000005
C1SEN                             00000005
C2CH0                             00000000
C2CH1                             00000001
C2IE                              00000006
C2IF                              00000006
C2OE                              00000005
C2ON                              00000007
C2OUT                             00000006
C2POL                             00000004
C2R                               00000002
C2REN                             00000004
C2RSEL                            00000004
C2SYNC                            00000000
CCP1CON                           00000017
CCP1IE                            00000002
CCP1IF                            00000002
CCP1M0                            00000000
CCP1M1                            00000001
CCP1M2                            00000002
CCP1M3                            00000003
CCP1X                             00000005
CCP1Y                             00000004
CCP2CON                           0000001D
CCP2IE                            00000000
CCP2IF                            00000000
CCP2M0                            00000000
CCP2M1                            00000001
CCP2M2                            00000002
CCP2M3                            00000003
CCP2X                             00000005
CCP2Y                             00000004
MPASM 5.86                      RECEPTOR.ASM   9-22-2020  11:55:59         PAGE 27


SYMBOL TABLE
  LABEL                             VALUE 

CCPR1                             00000015
CCPR1H                            00000016
CCPR1L                            00000015
CCPR2                             0000001B
CCPR2H                            0000001C
CCPR2L                            0000001B
CERO                              00000057
CHS0                              00000002
CHS1                              00000003
CHS2                              00000004
CHS3                              00000005
CKE                               00000006
CKP                               00000004
CLEAR_LCD                         
CM1CON0                           00000107
CM2CON0                           00000108
CM2CON1                           00000109
COMPROBAR                         00000063
COMPROBARSIOCUPADO                000000BB
COMPROBAR_2                       00000069
COMPROBAR_3                       0000006F
CONTADOR                          00000022
COPY_REG                          
CREN                              00000004
CSRC                              00000007
CURSOR_LEFT                       
CURSOR_OFF                        
CURSOR_ON                         
D                                 00000005
D0SDIG                            0000012C
DATA_ADDRESS                      00000005
DATOS                             00000008
DC                                00000001
DC1B0                             00000004
DC1B1                             00000005
DC2B0                             00000004
DC2B1                             00000005
DECIMAL                           00000028
DIGITO                            00000020
D_A                               00000005
D_NOT_A                           00000005
E                                 00000003
ECCPAS                            0000009C
ECCPAS0                           00000004
ECCPAS1                           00000005
ECCPAS2                           00000006
ECCPASE                           00000007
EEADR                             0000010D
EEADRH                            0000010F
EECON1                            0000018C
EECON2                            0000018D
EEDAT                             0000010C
EEDATA                            0000010C
MPASM 5.86                      RECEPTOR.ASM   9-22-2020  11:55:59         PAGE 28


SYMBOL TABLE
  LABEL                             VALUE 

EEDATH                            0000010E
EEIE                              00000004
EEIF                              00000004
EEPGD                             00000007
ESCRIBIRCARACTER                  000000A4
ESCRIBIRCOMANDO                   00000091
F                                 00000001
FERR                              00000002
FSR                               00000004
FUERALIM1T3                       00000123
FVREN                             00000000
GCEN                              00000007
GIE                               00000007
GO                                00000001
GO_DONE                           00000001
GO_NOT_DONE                       00000001
HEXADECIMAL                       0000002D
HTS                               00000002
I2C_DATA                          00000005
I2C_READ                          00000002
I2C_START                         00000003
I2C_STOP                          00000004
IMPRIMIR_VAR                      0000001E
INDF                              00000000
INTCON                            0000000B
INTE                              00000004
INTEDG                            00000006
INTF                              00000001
IOCB                              00000096
IOCB0                             00000000
IOCB1                             00000001
IOCB2                             00000002
IOCB3                             00000003
IOCB4                             00000004
IOCB5                             00000005
IOCB6                             00000006
IOCB7                             00000007
IRCF0                             00000004
IRCF1                             00000005
IRCF2                             00000006
IRP                               00000007
IR_INIT                           00000037
IR_RCV                            00000047
Inicio_lcd                        000000DB
LCD_INIT                          
LTS                               00000001
MC1OUT                            00000007
MC2OUT                            00000006
MOV_VAL                           
MSK                               00000093
MSK0                              00000000
MSK1                              00000001
MSK2                              00000002
MPASM 5.86                      RECEPTOR.ASM   9-22-2020  11:55:59         PAGE 29


SYMBOL TABLE
  LABEL                             VALUE 

MSK3                              00000003
MSK4                              00000004
MSK5                              00000005
MSK6                              00000006
MSK7                              00000007
NOT_A                             00000005
NOT_ADDRESS                       00000005
NOT_BO                            00000000
NOT_BOR                           00000000
NOT_DONE                          00000001
NOT_PD                            00000003
NOT_POR                           00000001
NOT_RBPU                          00000007
NOT_RC8                           00000006
NOT_T1SYNC                        00000002
NOT_TO                            00000004
NOT_TX8                           00000006
NOT_W                             00000002
NOT_WRITE                         00000002
NumCadena                         00000029
OERR                              00000001
OFF                               
ON                                
ONLY_DISPLAY                      
OPTION_REG                        00000081
ORIGIN_LCD                        
OSCCON                            0000008F
OSCTUNE                           00000090
OSFIE                             00000007
OSFIF                             00000007
OSTS                              00000003
P                                 00000004
P1M0                              00000006
P1M1                              00000007
PARAESCR1B1RREGISTRO              00000114
PCL                               00000002
PCLATH                            0000000A
PCON                              0000008E
PDC0                              00000000
PDC1                              00000001
PDC2                              00000002
PDC3                              00000003
PDC4                              00000004
PDC5                              00000005
PDC6                              00000006
PEIE                              00000006
PEN                               00000002
PIE1                              0000008C
PIE2                              0000008D
PIR1                              0000000C
PIR2                              0000000D
PORTA                             00000005
PORTB                             00000006
MPASM 5.86                      RECEPTOR.ASM   9-22-2020  11:55:59         PAGE 30


SYMBOL TABLE
  LABEL                             VALUE 

PORTC                             00000007
PORTD                             00000008
PORTE                             00000009
PR2                               00000092
PRSEN                             00000007
PS0                               00000000
PS1                               00000001
PS2                               00000002
PSA                               00000003
PSSAC0                            00000002
PSSAC1                            00000003
PSSBD0                            00000000
PSSBD1                            00000001
PSTRCON                           0000009D
PULSOSUB                          
PULSR                             00000002
PULSS                             00000003
PWM1CON                           0000009B
R                                 00000002
RA0                               00000000
RA1                               00000001
RA2                               00000002
RA3                               00000003
RA4                               00000004
RA5                               00000005
RA6                               00000006
RA7                               00000007
RB0                               00000000
RB1                               00000001
RB2                               00000002
RB3                               00000003
RB4                               00000004
RB5                               00000005
RB6                               00000006
RB7                               00000007
RBIE                              00000003
RBIF                              00000000
RC0                               00000000
RC1                               00000001
RC2                               00000002
RC3                               00000003
RC4                               00000004
RC5                               00000005
RC6                               00000006
RC7                               00000007
RC8_9                             00000006
RC9                               00000006
RCD8                              00000000
RCEN                              00000003
RCIDL                             00000006
RCIE                              00000005
RCIF                              00000005
RCREG                             0000001A
MPASM 5.86                      RECEPTOR.ASM   9-22-2020  11:55:59         PAGE 31


SYMBOL TABLE
  LABEL                             VALUE 

RCSTA                             00000018
RD                                00000000
RD0                               00000000
RD1                               00000001
RD2                               00000002
RD3                               00000003
RD4                               00000004
RD5                               00000005
RD6                               00000006
RD7                               00000007
RE0                               00000000
RE1                               00000001
RE2                               00000002
RE3                               00000003
READ_WRITE                        00000002
REC_BYTE1                         00000023
REC_BYTE2                         00000024
REG_EQUAL_JMP                     
REG_NE_JMP                        
REG_VAL_EQ_JMP                    
REG_VAL_NEQ_JMP                   
RETARDO_1200MICROS                00000060
RETARDO_50MICROS                  0000006C
RETARDO_600MICROS                 00000066
RP0                               00000005
RP1                               00000006
RS                                00000001
RSEN                              00000001
RW                                00000002
RX9                               00000006
RX9D                              00000000
R_NOT_W                           00000002
R_W                               00000002
S                                 00000003
SBOREN                            00000004
SCKP                              00000004
SCS                               00000000
SEL_BANK                          
SEN                               00000000
SENDB                             00000003
SETF                              
SETUP                             00000001
SMP                               00000007
SPBRG                             00000099
SPBRGH                            0000009A
SPEN                              00000007
SR0                               00000006
SR1                               00000007
SRCON                             00000185
SREN                              00000005
SSPADD                            00000093
SSPBUF                            00000013
SSPCON                            00000014
MPASM 5.86                      RECEPTOR.ASM   9-22-2020  11:55:59         PAGE 32


SYMBOL TABLE
  LABEL                             VALUE 

SSPCON2                           00000091
SSPEN                             00000005
SSPIE                             00000003
SSPIF                             00000003
SSPM0                             00000000
SSPM1                             00000001
SSPM2                             00000002
SSPM3                             00000003
SSPMSK                            00000093
SSPOV                             00000006
SSPSTAT                           00000094
START                             00000003
STATUS                            00000003
STRA                              00000000
STRB                              00000001
STRC                              00000002
STRD                              00000003
STRSYNC                           00000004
SWDTEN                            00000000
SYNC                              00000004
T0CS                              00000005
T0IE                              00000005
T0IF                              00000002
T0SE                              00000004
T1CKPS0                           00000004
T1CKPS1                           00000005
T1CON                             00000010
T1GINV                            00000007
T1GIV                             00000007
T1GSS                             00000001
T1INSYNC                          00000002
T1OSCEN                           00000003
T1SYNC                            00000002
T2CKPS0                           00000000
T2CKPS1                           00000001
T2CON                             00000012
TEMP                              00000021
TMR0                              00000001
TMR0IE                            00000005
TMR0IF                            00000002
TMR1                              0000000E
TMR1CS                            00000001
TMR1GE                            00000006
TMR1H                             0000000F
TMR1IE                            00000000
TMR1IF                            00000000
TMR1L                             0000000E
TMR1ON                            00000000
TMR2                              00000011
TMR2IE                            00000001
TMR2IF                            00000001
TMR2ON                            00000002
TOUTPS0                           00000003
MPASM 5.86                      RECEPTOR.ASM   9-22-2020  11:55:59         PAGE 33


SYMBOL TABLE
  LABEL                             VALUE 

TOUTPS1                           00000004
TOUTPS2                           00000005
TOUTPS3                           00000006
TRESD1G                           00000135
TRISA                             00000085
TRISA0                            00000000
TRISA1                            00000001
TRISA2                            00000002
TRISA3                            00000003
TRISA4                            00000004
TRISA5                            00000005
TRISA6                            00000006
TRISA7                            00000007
TRISB                             00000086
TRISB0                            00000000
TRISB1                            00000001
TRISB2                            00000002
TRISB3                            00000003
TRISB4                            00000004
TRISB5                            00000005
TRISB6                            00000006
TRISB7                            00000007
TRISC                             00000087
TRISC0                            00000000
TRISC1                            00000001
TRISC2                            00000002
TRISC3                            00000003
TRISC4                            00000004
TRISC5                            00000005
TRISC6                            00000006
TRISC7                            00000007
TRISD                             00000088
TRISD0                            00000000
TRISD1                            00000001
TRISD2                            00000002
TRISD3                            00000003
TRISD4                            00000004
TRISD5                            00000005
TRISD6                            00000006
TRISD7                            00000007
TRISE                             00000089
TRISE0                            00000000
TRISE1                            00000001
TRISE2                            00000002
TRISE3                            00000003
TRMT                              00000001
TUN0                              00000000
TUN1                              00000001
TUN2                              00000002
TUN3                              00000003
TUN4                              00000004
TX8_9                             00000006
TX9                               00000006
MPASM 5.86                      RECEPTOR.ASM   9-22-2020  11:55:59         PAGE 34


SYMBOL TABLE
  LABEL                             VALUE 

TX9D                              00000000
TXD8                              00000000
TXEN                              00000005
TXIE                              00000004
TXIF                              00000004
TXREG                             00000019
TXSTA                             00000098
UA                                00000001
ULPWUE                            00000005
ULPWUIE                           00000002
ULPWUIF                           00000002
UND1G                             00000124
UNO                               00000051
VCFG0                             00000004
VCFG1                             00000005
VERIFICACION                      00000031
VERIFICACION_2                    0000005B
VR0                               00000000
VR1                               00000001
VR2                               00000002
VR3                               00000003
VRCON                             00000097
VREN                              00000007
VROE                              00000006
VRR                               00000005
VRSS                              00000004
Varregcomp                        00000030
W                                 00000000
WCOL                              00000007
WDTCON                            00000105
WDTPS0                            00000001
WDTPS1                            00000002
WDTPS2                            00000003
WDTPS3                            00000004
WPUB                              00000095
WPUB0                             00000000
WPUB1                             00000001
WPUB2                             00000002
WPUB3                             00000003
WPUB4                             00000004
WPUB5                             00000005
WPUB6                             00000006
WPUB7                             00000007
WR                                00000001
WREN                              00000002
WRERR                             00000003
WRITE_LCD                         
WRITE_LCD_REG                     
WRITE_LCD_REG_HEX                 
WUE                               00000001
Z                                 00000002
_.org_0_0144                      00000144
_BOR21V                           00003EFF
MPASM 5.86                      RECEPTOR.ASM   9-22-2020  11:55:59         PAGE 35


SYMBOL TABLE
  LABEL                             VALUE 

_BOR40V                           00003FFF
_BOR4V_BOR21V                     00003EFF
_BOR4V_BOR40V                     00003FFF
_BOREN_NSLEEP                     00003EFF
_BOREN_OFF                        00003CFF
_BOREN_ON                         00003FFF
_BOREN_SBODEN                     00003DFF
_BOR_NSLEEP                       00003EFF
_BOR_OFF                          00003CFF
_BOR_ON                           00003FFF
_BOR_SBODEN                       00003DFF
_CONFIG1                          00002007
_CONFIG2                          00002008
_CPD_OFF                          00003FFF
_CPD_ON                           00003F7F
_CP_OFF                           00003FFF
_CP_ON                            00003FBF
_DEBUG_OFF                        00003FFF
_DEBUG_ON                         00001FFF
_DEVID1                           00002006
_EC_OSC                           00003FFB
_EXTRC                            00003FFF
_EXTRCIO                          00003FFE
_EXTRC_OSC_CLKOUT                 00003FFF
_EXTRC_OSC_NOCLKOUT               00003FFE
_FCMEN_OFF                        000037FF
_FCMEN_ON                         00003FFF
_FOSC_EC                          00003FFB
_FOSC_EXTRC_CLKOUT                00003FFF
_FOSC_EXTRC_NOCLKOUT              00003FFE
_FOSC_HS                          00003FFA
_FOSC_INTRC_CLKOUT                00003FFD
_FOSC_INTRC_NOCLKOUT              00003FFC
_FOSC_LP                          00003FF8
_FOSC_XT                          00003FF9
_HS_OSC                           00003FFA
_IDLOC0                           00002000
_IDLOC1                           00002001
_IDLOC2                           00002002
_IDLOC3                           00002003
_IESO_OFF                         00003BFF
_IESO_ON                          00003FFF
_INTOSC                           00003FFD
_INTOSCIO                         00003FFC
_INTRC_OSC_CLKOUT                 00003FFD
_INTRC_OSC_NOCLKOUT               00003FFC
_LP_OSC                           00003FF8
_LVP_OFF                          00002FFF
_LVP_ON                           00003FFF
_MCLRE_OFF                        00003FDF
_MCLRE_ON                         00003FFF
_PWRTE_OFF                        00003FFF
_PWRTE_ON                         00003FEF
MPASM 5.86                      RECEPTOR.ASM   9-22-2020  11:55:59         PAGE 36


SYMBOL TABLE
  LABEL                             VALUE 

_WDTE_OFF                         00003FF7
_WDTE_ON                          00003FFF
_WDT_OFF                          00003FF7
_WDT_ON                           00003FFF
_WRT_1FOURTH                      00003BFF
_WRT_256                          00003DFF
_WRT_HALF                         000039FF
_WRT_OFF                          00003FFF
_XT_OSC                           00003FF9
__16F887                          00000001
apagar_el_display                 00000008
apagarpantalla                    
borrarfila                        
caractertemp                      0000002D
crearreg                          
cursor_derecha                    
desplazaderecha                   
desplazaizquierda                 
enviaradisplay                    
enviarcdisplay                    
escribirmensaje                   
escribirregistro                  
fila_enter                        
home_inicio                       00000002
indice                            0000002A
iniciar_hcsr04                    
iniciar_teclado                   
ir_a_fila                         
irsitecla                         
lcdfc                             
leertecla                         
limpiar_lcd                       00000001
llamarsitecla                     
mayorque                          
mayorquereg                       
medir_ultrasonico                 
memo_tiemp_1                      00000025
memo_tiemp_2                      00000026
memo_tiemp_3                      00000027
memo_tiemp_4                      00000028
memocaracter                      0000002B
memoriaw                          0000002C
menorque                          
menorquereg                       
mensaje                           
milisegundo                       
milisegundos                      00000072
mover_cursor_derecha              00000014
mover_cursor_izquierda            00000010
mover_pantalla_derecha            0000001C
mover_pantalla_izquierda          00000018
multiplicarreg                    
off                               00000000
MPASM 5.86                      RECEPTOR.ASM   9-22-2020  11:55:59         PAGE 37


SYMBOL TABLE
  LABEL                             VALUE 

on                                00000001
on_display_cursor_blink           0000000F
on_lib_retardos_ms                
pinlcd                            00000008
puertoa                           00000005
puertob                           00000006
puertoc                           00000007
puertod                           00000008
puertoe                           00000009
registroadisplay                  
registrocdisplay                  
restarreg                         
retardo_ms                        
retbucle1                         00000073
retbucle1a                        00000081
retbucle2                         00000075
retbucle2a                        00000083
retbucle3                         00000077
retbucle3a                        00000085
retbucle4a                        00000087
salto_enter                       000000C0
segundo                           
segundos                          00000080
solo_display                      0000000C
subp4arab0rf1l                    0000013F
sumarreg                          
ubicacionlcdccr                   0000002F
ubicacionlcdfcr                   0000002E

Errors   :     0
Warnings :    43 reported,     0 suppressed
Messages :    16 reported,     0 suppressed

